; ModuleID = 'C:/ERTS_Repo/Assignment_2/SC_IO_test/SC_IO/solution1/.autopilot/db/a.o.3.bc'
target datalayout = "e-p:32:32:32-i1:8:8-i8:8:8-i16:16:16-i32:32:32-i64:64:64-f32:32:32-f64:64:64-f80:128:128-v64:64:64-v128:128:128-a0:0:64-f80:32:32-n8:16:32-S32"
target triple = "i686-pc-mingw32"

@ssdm_ins_iosc_0_0_ti = constant i1 false         ; [#uses=0 type=i1*]
@ssdm_ins_iosc_0_0_sw = constant i4 0             ; [#uses=0 type=i4*]
@ssdm_ins_iosc_0_0_re = constant i1 false         ; [#uses=0 type=i1*]
@ssdm_ins_iosc_0_0_ou = constant i4 0             ; [#uses=0 type=i4*]
@ssdm_ins_iosc_0_0_in = constant i4 0             ; [#uses=0 type=i4*]
@ssdm_ins_iosc_0_0_ct = constant i4 0             ; [#uses=0 type=i4*]
@ssdm_ins_iosc_0_0_cl = constant i1 false         ; [#uses=0 type=i1*]
@llvm_global_ctors_1 = appending global [1 x void ()*] [void ()* @_GLOBAL__I_a] ; [#uses=0 type=[1 x void ()*]*]
@llvm_global_ctors_0 = appending global [1 x i32] [i32 65535] ; [#uses=0 type=[1 x i32]*]
@iosc_ssdm_thread_M_timeThread = external global i1 ; [#uses=1 type=i1*]
@iosc_ssdm_thread_M_iosThread = external global i1 ; [#uses=1 type=i1*]
@p_str9 = private unnamed_addr constant [15 x i8] c"__ssdm_reset__\00", align 1 ; [#uses=4 type=[15 x i8]*]
@p_str8 = private unnamed_addr constant [10 x i8] c"iosThread\00", align 1 ; [#uses=4 type=[10 x i8]*]
@p_str7 = private unnamed_addr constant [8 x i8] c"outLeds\00", align 1 ; [#uses=3 type=[8 x i8]*]
@p_str6 = private unnamed_addr constant [9 x i8] c"inSwitch\00", align 1 ; [#uses=3 type=[9 x i8]*]
@p_str5 = private unnamed_addr constant [5 x i8] c"ctrl\00", align 1 ; [#uses=3 type=[5 x i8]*]
@p_str4 = private unnamed_addr constant [13 x i8] c"\22sc_uint<4>\22\00", align 1 ; [#uses=9 type=[13 x i8]*]
@p_str3 = private unnamed_addr constant [6 x i8] c"reset\00", align 1 ; [#uses=4 type=[6 x i8]*]
@p_str2 = private unnamed_addr constant [4 x i8] c"clk\00", align 1 ; [#uses=5 type=[4 x i8]*]
@p_str16 = private unnamed_addr constant [11 x i8] c"timeThread\00", align 1 ; [#uses=3 type=[11 x i8]*]
@p_str15 = private unnamed_addr constant [17 x i8] c"-bus_bundle slv0\00", align 1 ; [#uses=3 type=[17 x i8]*]
@p_str14 = private unnamed_addr constant [10 x i8] c"AXI4LiteS\00", align 1 ; [#uses=3 type=[10 x i8]*]
@p_str12 = private unnamed_addr constant [6 x i8] c"timer\00", align 1 ; [#uses=1 type=[6 x i8]*]
@p_str10 = private unnamed_addr constant [1 x i8] zeroinitializer, align 1 ; [#uses=20 type=[1 x i8]*]
@p_str1 = private unnamed_addr constant [7 x i8] c"\22bool\22\00", align 1 ; [#uses=7 type=[7 x i8]*]
@p_str = private unnamed_addr constant [5 x i8] c"iosc\00", align 1 ; [#uses=22 type=[5 x i8]*]

; [#uses=46]
declare void @llvm.dbg.value(metadata, i64, metadata) nounwind readnone

; [#uses=2]
declare void @llvm.dbg.declare(metadata, metadata) nounwind readnone

; [#uses=1]
define void @"iosc::timeThread"(i1* %iosc_clk_m_if_Val, i1* %iosc_reset_m_if_Val, i4* %iosc_ctrl_m_if_Val_V, i4* %iosc_inSwitch_m_if_Val_V, i4* %iosc_outLeds_m_if_Val_V, i1* %iosc_timer_Val, i4* %iosc_switchs_V) {
_ZN7_ap_sc_7sc_core4waitEi.exit:
  %count = alloca i32                             ; [#uses=4 type=i32*]
  call void @llvm.dbg.declare(metadata !{i32* %count}, metadata !75) ; [debug variable = count]
  call void (...)* @_ssdm_op_SpecIFCore(i4* %iosc_ctrl_m_if_Val_V, [1 x i8]* @p_str10, [10 x i8]* @p_str14, [1 x i8]* @p_str10, i32 -1, [1 x i8]* @p_str10, [1 x i8]* @p_str10, [1 x i8]* @p_str10, [1 x i8]* @p_str10, [17 x i8]* @p_str15)
  call void (...)* @_ssdm_op_SpecBitsMap(i1* %iosc_clk_m_if_Val), !map !1058
  call void (...)* @_ssdm_op_SpecBitsMap(i1* %iosc_reset_m_if_Val), !map !1062
  call void (...)* @_ssdm_op_SpecBitsMap(i4* %iosc_ctrl_m_if_Val_V), !map !1066
  call void (...)* @_ssdm_op_SpecBitsMap(i4* %iosc_inSwitch_m_if_Val_V), !map !1070
  call void (...)* @_ssdm_op_SpecBitsMap(i4* %iosc_outLeds_m_if_Val_V), !map !1074
  call void (...)* @_ssdm_op_SpecBitsMap(i1* %iosc_timer_Val), !map !1078
  call void (...)* @_ssdm_op_SpecBitsMap(i4* %iosc_switchs_V), !map !1082
  call void @llvm.dbg.value(metadata !{i1* %iosc_clk_m_if_Val}, i64 0, metadata !1086), !dbg !1098 ; [debug line = 37:12] [debug variable = iosc.clk.m_if.Val]
  call void @llvm.dbg.value(metadata !{i1* %iosc_reset_m_if_Val}, i64 0, metadata !1099), !dbg !1098 ; [debug line = 37:12] [debug variable = iosc.reset.m_if.Val]
  call void @llvm.dbg.value(metadata !{i4* %iosc_ctrl_m_if_Val_V}, i64 0, metadata !1100), !dbg !1098 ; [debug line = 37:12] [debug variable = iosc.ctrl.m_if.Val.V]
  call void @llvm.dbg.value(metadata !{i4* %iosc_inSwitch_m_if_Val_V}, i64 0, metadata !1116), !dbg !1098 ; [debug line = 37:12] [debug variable = iosc.inSwitch.m_if.Val.V]
  call void @llvm.dbg.value(metadata !{i4* %iosc_outLeds_m_if_Val_V}, i64 0, metadata !1117), !dbg !1098 ; [debug line = 37:12] [debug variable = iosc.outLeds.m_if.Val.V]
  call void @llvm.dbg.value(metadata !{i1* %iosc_timer_Val}, i64 0, metadata !1128), !dbg !1098 ; [debug line = 37:12] [debug variable = iosc.timer.Val]
  call void @llvm.dbg.value(metadata !{i4* %iosc_switchs_V}, i64 0, metadata !1135), !dbg !1098 ; [debug line = 37:12] [debug variable = iosc.switchs.V]
  call void (...)* @_ssdm_op_SpecPort([5 x i8]* @p_str, i32 0, [7 x i8]* @p_str1, [4 x i8]* @p_str2, i32 0, i32 0, i1* %iosc_clk_m_if_Val) nounwind, !dbg !1138 ; [debug line = 38:4]
  call void (...)* @_ssdm_op_SpecPort([5 x i8]* @p_str, i32 0, [7 x i8]* @p_str1, [6 x i8]* @p_str3, i32 0, i32 0, i1* %iosc_reset_m_if_Val) nounwind, !dbg !1139 ; [debug line = 39:3]
  call void (...)* @_ssdm_op_SpecPort([5 x i8]* @p_str, i32 0, [13 x i8]* @p_str4, [5 x i8]* @p_str5, i32 0, i32 0, i4* %iosc_ctrl_m_if_Val_V) nounwind, !dbg !1140 ; [debug line = 40:3]
  call void (...)* @_ssdm_op_SpecPort([5 x i8]* @p_str, i32 0, [13 x i8]* @p_str4, [9 x i8]* @p_str6, i32 0, i32 0, i4* %iosc_inSwitch_m_if_Val_V) nounwind, !dbg !1141 ; [debug line = 41:3]
  call void (...)* @_ssdm_op_SpecPort([5 x i8]* @p_str, i32 1, [13 x i8]* @p_str4, [8 x i8]* @p_str7, i32 0, i32 0, i4* %iosc_outLeds_m_if_Val_V) nounwind, !dbg !1142 ; [debug line = 42:3]
  call void (...)* @_ssdm_op_SpecProcessDef([5 x i8]* @p_str, i32 2, [11 x i8]* @p_str16) nounwind, !dbg !1143 ; [debug line = 43:3]
  %tmp_1 = call i32 (...)* @_ssdm_op_SpecRegionBegin([15 x i8]* @p_str9), !dbg !1144 ; [#uses=1 type=i32] [debug line = 43:106]
  call void (...)* @_ssdm_op_SpecProtocol(i32 1, [1 x i8]* @p_str10) nounwind, !dbg !1145 ; [debug line = 43:190]
  %p_ssdm_reset_v = call i32 (...)* @_ssdm_op_SpecStateBegin(i32 0, i32 0, i32 1) nounwind, !dbg !1146 ; [#uses=1 type=i32] [debug line = 43:240]
  call void @llvm.dbg.value(metadata !{i32 %p_ssdm_reset_v}, i64 0, metadata !1147), !dbg !1146 ; [debug line = 43:240] [debug variable = _ssdm_reset_v]
  %empty = call i32 (...)* @_ssdm_op_SpecStateEnd(i32 %p_ssdm_reset_v) nounwind, !dbg !1148 ; [#uses=0 type=i32] [debug line = 51:44]
  %empty_3 = call i32 (...)* @_ssdm_op_SpecRegionEnd([15 x i8]* @p_str9, i32 %tmp_1), !dbg !1149 ; [#uses=0 type=i32] [debug line = 51:82]
  call void (...)* @_ssdm_op_Wait(i32 1) nounwind, !dbg !1150 ; [debug line = 803:19@39:1]
  call void @llvm.dbg.value(metadata !{i1* %iosc_timer_Val}, i64 0, metadata !1157), !dbg !1164 ; [debug line = 128:96@207:13@41:1] [debug variable = P]
  call void @_ssdm_op_Write.ap_auto.volatile.i1P(i1* %iosc_timer_Val, i1 false), !dbg !1175 ; [debug line = 167:116@207:13@41:1]
  store i32 0, i32* %count
  br label %_ZN7_ap_sc_7sc_core4waitEi.exit2, !dbg !1178 ; [debug line = 41:17]

_ZN7_ap_sc_7sc_core4waitEi.exit2:                 ; preds = %_ZN7_ap_sc_7sc_core4waitEi.exit2.backedge, %_ZN7_ap_sc_7sc_core4waitEi.exit
  %count_load = load i32* %count, !dbg !1179      ; [#uses=2 type=i32] [debug line = 47:4]
  call void (...)* @_ssdm_op_Wait(i32 1) nounwind, !dbg !1182 ; [debug line = 803:19@44:3]
  %tmp = icmp slt i32 %count_load, 100000000, !dbg !1184 ; [#uses=1 type=i1] [debug line = 45:3]
  br i1 %tmp, label %0, label %1, !dbg !1184      ; [debug line = 45:3]

; <label>:0                                       ; preds = %_ZN7_ap_sc_7sc_core4waitEi.exit2
  %count_1 = add nsw i32 %count_load, 1, !dbg !1179 ; [#uses=1 type=i32] [debug line = 47:4]
  call void @llvm.dbg.value(metadata !{i32 %count_1}, i64 0, metadata !75), !dbg !1179 ; [debug line = 47:4] [debug variable = count]
  call void @llvm.dbg.value(metadata !{i1* %iosc_timer_Val}, i64 0, metadata !1157), !dbg !1185 ; [debug line = 128:96@207:13@48:4] [debug variable = P]
  call void @_ssdm_op_Write.ap_auto.volatile.i1P(i1* %iosc_timer_Val, i1 false), !dbg !1188 ; [debug line = 167:116@207:13@48:4]
  store i32 %count_1, i32* %count, !dbg !1179     ; [debug line = 47:4]
  br label %_ZN7_ap_sc_7sc_core4waitEi.exit2.backedge, !dbg !1189 ; [debug line = 49:3]

; <label>:1                                       ; preds = %_ZN7_ap_sc_7sc_core4waitEi.exit2
  call void @llvm.dbg.value(metadata !{i1* %iosc_timer_Val}, i64 0, metadata !1157), !dbg !1190 ; [debug line = 128:96@207:13@53:4] [debug variable = P]
  call void @_ssdm_op_Write.ap_auto.volatile.i1P(i1* %iosc_timer_Val, i1 true), !dbg !1194 ; [debug line = 167:116@207:13@53:4]
  store i32 0, i32* %count
  br label %_ZN7_ap_sc_7sc_core4waitEi.exit2.backedge

_ZN7_ap_sc_7sc_core4waitEi.exit2.backedge:        ; preds = %1, %0
  br label %_ZN7_ap_sc_7sc_core4waitEi.exit2
}

; [#uses=0]
define weak void @"iosc::iosc"(i1* %iosc_clk_m_if_Val, i1* %iosc_reset_m_if_Val, i4* %iosc_ctrl_m_if_Val_V, i4* %iosc_inSwitch_m_if_Val_V, i4* %iosc_outLeds_m_if_Val_V, i1* %iosc_timer_Val, i4* %iosc_switchs_V) {
  call void (...)* @_ssdm_op_SpecIFCore(i4* %iosc_ctrl_m_if_Val_V, [1 x i8]* @p_str10, [10 x i8]* @p_str14, [1 x i8]* @p_str10, i32 -1, [1 x i8]* @p_str10, [1 x i8]* @p_str10, [1 x i8]* @p_str10, [1 x i8]* @p_str10, [17 x i8]* @p_str15)
  call void (...)* @_ssdm_op_SpecBitsMap(i1* %iosc_clk_m_if_Val), !map !1058
  call void (...)* @_ssdm_op_SpecBitsMap(i1* %iosc_reset_m_if_Val), !map !1062
  call void (...)* @_ssdm_op_SpecBitsMap(i4* %iosc_ctrl_m_if_Val_V), !map !1066
  call void (...)* @_ssdm_op_SpecBitsMap(i4* %iosc_inSwitch_m_if_Val_V), !map !1070
  call void (...)* @_ssdm_op_SpecBitsMap(i4* %iosc_outLeds_m_if_Val_V), !map !1074
  call void (...)* @_ssdm_op_SpecBitsMap(i1* %iosc_timer_Val), !map !1078
  call void (...)* @_ssdm_op_SpecBitsMap(i4* %iosc_switchs_V), !map !1082
  call void @llvm.dbg.value(metadata !{i1* %iosc_clk_m_if_Val}, i64 0, metadata !1195), !dbg !1198 ; [debug line = 18:3] [debug variable = iosc.clk.m_if.Val]
  call void @llvm.dbg.value(metadata !{i1* %iosc_reset_m_if_Val}, i64 0, metadata !1199), !dbg !1198 ; [debug line = 18:3] [debug variable = iosc.reset.m_if.Val]
  call void @llvm.dbg.value(metadata !{i4* %iosc_ctrl_m_if_Val_V}, i64 0, metadata !1200), !dbg !1198 ; [debug line = 18:3] [debug variable = iosc.ctrl.m_if.Val.V]
  call void @llvm.dbg.value(metadata !{i4* %iosc_inSwitch_m_if_Val_V}, i64 0, metadata !1201), !dbg !1198 ; [debug line = 18:3] [debug variable = iosc.inSwitch.m_if.Val.V]
  call void @llvm.dbg.value(metadata !{i4* %iosc_outLeds_m_if_Val_V}, i64 0, metadata !1202), !dbg !1198 ; [debug line = 18:3] [debug variable = iosc.outLeds.m_if.Val.V]
  call void @llvm.dbg.value(metadata !{i1* %iosc_timer_Val}, i64 0, metadata !1203), !dbg !1198 ; [debug line = 18:3] [debug variable = iosc.timer.Val]
  call void @llvm.dbg.value(metadata !{i4* %iosc_switchs_V}, i64 0, metadata !1204), !dbg !1198 ; [debug line = 18:3] [debug variable = iosc.switchs.V]
  call void (...)* @_ssdm_op_SpecTopModule([5 x i8]* @p_str, [5 x i8]* @p_str) nounwind, !dbg !1205 ; [debug line = 20:5]
  %iosc_ssdm_thread_s = load i1* @iosc_ssdm_thread_M_iosThread, align 1, !dbg !1207 ; [#uses=1 type=i1] [debug line = 21:5]
  br i1 %iosc_ssdm_thread_s, label %1, label %2, !dbg !1207 ; [debug line = 21:5]

; <label>:1                                       ; preds = %0
  call void @"iosc::iosThread"(i1* %iosc_clk_m_if_Val, i1* %iosc_reset_m_if_Val, i4* %iosc_ctrl_m_if_Val_V, i4* %iosc_inSwitch_m_if_Val_V, i4* %iosc_outLeds_m_if_Val_V, i1* %iosc_timer_Val, i4* %iosc_switchs_V), !dbg !1208 ; [debug line = 21:36]
  br label %UnifiedUnreachableBlock

; <label>:2                                       ; preds = %0
  call void (...)* @_ssdm_op_SpecProcessDecl([5 x i8]* @p_str, i32 2, [10 x i8]* @p_str8) nounwind, !dbg !1209 ; [debug line = 21:49]
  call void (...)* @_ssdm_op_SpecSensitive([10 x i8]* @p_str8, [4 x i8]* @p_str2, i1* %iosc_clk_m_if_Val, i32 1) nounwind, !dbg !1210 ; [debug line = 22:5]
  call void (...)* @_ssdm_op_SpecSensitive([10 x i8]* @p_str8, [6 x i8]* @p_str3, i1* %iosc_reset_m_if_Val, i32 3) nounwind, !dbg !1211 ; [debug line = 23:5]
  %iosc_ssdm_thread_1 = load i1* @iosc_ssdm_thread_M_timeThread, align 1, !dbg !1212 ; [#uses=1 type=i1] [debug line = 24:5]
  br i1 %iosc_ssdm_thread_1, label %3, label %4, !dbg !1212 ; [debug line = 24:5]

; <label>:3                                       ; preds = %2
  call void @"iosc::timeThread"(i1* %iosc_clk_m_if_Val, i1* %iosc_reset_m_if_Val, i4* %iosc_ctrl_m_if_Val_V, i4* %iosc_inSwitch_m_if_Val_V, i4* %iosc_outLeds_m_if_Val_V, i1* %iosc_timer_Val, i4* %iosc_switchs_V), !dbg !1213 ; [debug line = 24:37]
  br label %UnifiedUnreachableBlock

; <label>:4                                       ; preds = %2
  call void (...)* @_ssdm_op_SpecProcessDecl([5 x i8]* @p_str, i32 2, [11 x i8]* @p_str16) nounwind, !dbg !1214 ; [debug line = 24:51]
  call void (...)* @_ssdm_op_SpecSensitive([11 x i8]* @p_str16, [4 x i8]* @p_str2, i1* %iosc_clk_m_if_Val, i32 1) nounwind, !dbg !1215 ; [debug line = 25:5]
  call void (...)* @_ssdm_op_SpecPort([5 x i8]* @p_str, i32 0, [7 x i8]* @p_str1, [4 x i8]* @p_str2, i32 0, i32 0, i1* %iosc_clk_m_if_Val) nounwind, !dbg !1216 ; [debug line = 26:5]
  call void (...)* @_ssdm_op_SpecPort([5 x i8]* @p_str, i32 0, [7 x i8]* @p_str1, [6 x i8]* @p_str3, i32 0, i32 0, i1* %iosc_reset_m_if_Val) nounwind, !dbg !1217 ; [debug line = 27:5]
  call void (...)* @_ssdm_op_SpecPort([5 x i8]* @p_str, i32 0, [13 x i8]* @p_str4, [5 x i8]* @p_str5, i32 0, i32 0, i4* %iosc_ctrl_m_if_Val_V) nounwind, !dbg !1218 ; [debug line = 28:5]
  call void (...)* @_ssdm_op_SpecPort([5 x i8]* @p_str, i32 0, [13 x i8]* @p_str4, [9 x i8]* @p_str6, i32 0, i32 0, i4* %iosc_inSwitch_m_if_Val_V) nounwind, !dbg !1219 ; [debug line = 29:5]
  call void (...)* @_ssdm_op_SpecPort([5 x i8]* @p_str, i32 1, [13 x i8]* @p_str4, [8 x i8]* @p_str7, i32 0, i32 0, i4* %iosc_outLeds_m_if_Val_V) nounwind, !dbg !1220 ; [debug line = 30:5]
  call void (...)* @_ssdm_op_SpecChannel([5 x i8]* @p_str, i32 0, [7 x i8]* @p_str1, [6 x i8]* @p_str12, i32 1, i32 0, i1* %iosc_timer_Val) nounwind, !dbg !1221 ; [debug line = 31:5]
  ret void, !dbg !1222                            ; [debug line = 29:1]

UnifiedUnreachableBlock:                          ; preds = %3, %1
  unreachable
}

; [#uses=1]
define void @"iosc::iosThread"(i1* %iosc_clk_m_if_Val, i1* %iosc_reset_m_if_Val, i4* %iosc_ctrl_m_if_Val_V, i4* %iosc_inSwitch_m_if_Val_V, i4* %iosc_outLeds_m_if_Val_V, i1* %iosc_timer_Val, i4* %iosc_switchs_V) {
_ZN7_ap_sc_7sc_core4waitEi.exit:
  %count = alloca i8                              ; [#uses=5 type=i8*]
  call void @llvm.dbg.declare(metadata !{i8* %count}, metadata !1223) ; [debug variable = op]
  call void (...)* @_ssdm_op_SpecBitsMap(i1* %iosc_clk_m_if_Val), !map !1058
  call void (...)* @_ssdm_op_SpecBitsMap(i1* %iosc_reset_m_if_Val), !map !1062
  call void (...)* @_ssdm_op_SpecBitsMap(i4* %iosc_ctrl_m_if_Val_V), !map !1066
  call void (...)* @_ssdm_op_SpecBitsMap(i4* %iosc_inSwitch_m_if_Val_V), !map !1070
  call void (...)* @_ssdm_op_SpecBitsMap(i4* %iosc_outLeds_m_if_Val_V), !map !1074
  call void (...)* @_ssdm_op_SpecBitsMap(i1* %iosc_timer_Val), !map !1078
  call void (...)* @_ssdm_op_SpecBitsMap(i4* %iosc_switchs_V), !map !1082
  call void @llvm.dbg.value(metadata !{i1* %iosc_clk_m_if_Val}, i64 0, metadata !1225), !dbg !1228 ; [debug line = 3:12] [debug variable = iosc.clk.m_if.Val]
  call void @llvm.dbg.value(metadata !{i1* %iosc_reset_m_if_Val}, i64 0, metadata !1229), !dbg !1228 ; [debug line = 3:12] [debug variable = iosc.reset.m_if.Val]
  call void @llvm.dbg.value(metadata !{i4* %iosc_ctrl_m_if_Val_V}, i64 0, metadata !1230), !dbg !1228 ; [debug line = 3:12] [debug variable = iosc.ctrl.m_if.Val.V]
  call void @llvm.dbg.value(metadata !{i4* %iosc_inSwitch_m_if_Val_V}, i64 0, metadata !1231), !dbg !1228 ; [debug line = 3:12] [debug variable = iosc.inSwitch.m_if.Val.V]
  call void @llvm.dbg.value(metadata !{i4* %iosc_outLeds_m_if_Val_V}, i64 0, metadata !1232), !dbg !1228 ; [debug line = 3:12] [debug variable = iosc.outLeds.m_if.Val.V]
  call void @llvm.dbg.value(metadata !{i1* %iosc_timer_Val}, i64 0, metadata !1233), !dbg !1228 ; [debug line = 3:12] [debug variable = iosc.timer.Val]
  call void @llvm.dbg.value(metadata !{i4* %iosc_switchs_V}, i64 0, metadata !1234), !dbg !1228 ; [debug line = 3:12] [debug variable = iosc.switchs.V]
  call void (...)* @_ssdm_op_SpecPort([5 x i8]* @p_str, i32 0, [7 x i8]* @p_str1, [4 x i8]* @p_str2, i32 0, i32 0, i1* %iosc_clk_m_if_Val) nounwind, !dbg !1235 ; [debug line = 4:4]
  call void (...)* @_ssdm_op_SpecPort([5 x i8]* @p_str, i32 0, [7 x i8]* @p_str1, [6 x i8]* @p_str3, i32 0, i32 0, i1* %iosc_reset_m_if_Val) nounwind, !dbg !1237 ; [debug line = 5:3]
  call void (...)* @_ssdm_op_SpecPort([5 x i8]* @p_str, i32 0, [13 x i8]* @p_str4, [5 x i8]* @p_str5, i32 0, i32 0, i4* %iosc_ctrl_m_if_Val_V) nounwind, !dbg !1238 ; [debug line = 6:3]
  call void (...)* @_ssdm_op_SpecPort([5 x i8]* @p_str, i32 0, [13 x i8]* @p_str4, [9 x i8]* @p_str6, i32 0, i32 0, i4* %iosc_inSwitch_m_if_Val_V) nounwind, !dbg !1239 ; [debug line = 7:3]
  call void (...)* @_ssdm_op_SpecPort([5 x i8]* @p_str, i32 1, [13 x i8]* @p_str4, [8 x i8]* @p_str7, i32 0, i32 0, i4* %iosc_outLeds_m_if_Val_V) nounwind, !dbg !1240 ; [debug line = 8:3]
  call void (...)* @_ssdm_op_SpecProcessDef([5 x i8]* @p_str, i32 2, [10 x i8]* @p_str8) nounwind, !dbg !1241 ; [debug line = 9:3]
  %tmp_3 = call i32 (...)* @_ssdm_op_SpecRegionBegin([15 x i8]* @p_str9), !dbg !1242 ; [#uses=1 type=i32] [debug line = 9:105]
  call void (...)* @_ssdm_op_SpecProtocol(i32 1, [1 x i8]* @p_str10) nounwind, !dbg !1243 ; [debug line = 9:189]
  %p_ssdm_reset_v = call i32 (...)* @_ssdm_op_SpecStateBegin(i32 0, i32 0, i32 1) nounwind, !dbg !1244 ; [#uses=1 type=i32] [debug line = 9:239]
  call void @llvm.dbg.value(metadata !{i32 %p_ssdm_reset_v}, i64 0, metadata !1245), !dbg !1244 ; [debug line = 9:239] [debug variable = _ssdm_reset_v]
  call void (...)* @_ssdm_op_SpecIFCore(i4* %iosc_ctrl_m_if_Val_V, [1 x i8]* @p_str10, [10 x i8]* @p_str14, [1 x i8]* @p_str10, i32 -1, [1 x i8]* @p_str10, [1 x i8]* @p_str10, [1 x i8]* @p_str10, [1 x i8]* @p_str10, [17 x i8]* @p_str15), !dbg !1246 ; [debug line = 5:1]
  %empty = call i32 (...)* @_ssdm_op_SpecStateEnd(i32 %p_ssdm_reset_v) nounwind, !dbg !1247 ; [#uses=0 type=i32] [debug line = 5:92]
  %empty_4 = call i32 (...)* @_ssdm_op_SpecRegionEnd([15 x i8]* @p_str9, i32 %tmp_3), !dbg !1248 ; [#uses=0 type=i32] [debug line = 5:130]
  call void (...)* @_ssdm_op_Wait(i32 1) nounwind, !dbg !1249 ; [debug line = 803:19@8:1]
  store i8 0, i8* %count
  br label %_ZN7_ap_sc_7sc_core4waitEi.exit2, !dbg !1251 ; [debug line = 9:26]

_ZN7_ap_sc_7sc_core4waitEi.exit2:                 ; preds = %_ZN7_ap_sc_7sc_core4waitEi.exit2.backedge, %_ZN7_ap_sc_7sc_core4waitEi.exit
  %count_load = load i8* %count, !dbg !1252       ; [#uses=1 type=i8] [debug line = 14:7]
  call void (...)* @_ssdm_op_Wait(i32 1) nounwind, !dbg !1254 ; [debug line = 803:19@13:3]
  %val_V = call i4 @_ssdm_op_Read.ap_auto.volatile.i4P(i4* %iosc_inSwitch_m_if_Val_V), !dbg !1256 ; [#uses=1 type=i4] [debug line = 374:13@60:21@180:66@351:73@14:7]
  call void @llvm.dbg.value(metadata !{i4 %val_V}, i64 0, metadata !1273), !dbg !1256 ; [debug line = 374:13@60:21@180:66@351:73@14:7] [debug variable = val.V]
  %tmp = icmp eq i4 %val_V, -8, !dbg !1275        ; [#uses=1 type=i1] [debug line = 1979:9@3571:144@14:7]
  %v_assign = select i1 %tmp, i8 0, i8 %count_load, !dbg !1252 ; [#uses=4 type=i8] [debug line = 14:7]
  %val_V_1 = call i4 @_ssdm_op_Read.ap_auto.volatile.i4P(i4* %iosc_ctrl_m_if_Val_V), !dbg !1826 ; [#uses=1 type=i4] [debug line = 374:13@60:21@180:66@351:73@18:7]
  call void @llvm.dbg.value(metadata !{i4 %val_V_1}, i64 0, metadata !1273), !dbg !1826 ; [debug line = 374:13@60:21@180:66@351:73@18:7] [debug variable = val.V]
  %tmp_2 = icmp eq i4 %val_V_1, 0, !dbg !1831     ; [#uses=1 type=i1] [debug line = 1979:9@3571:144@18:7]
  br i1 %tmp_2, label %0, label %3, !dbg !1830    ; [debug line = 18:7]

; <label>:0                                       ; preds = %_ZN7_ap_sc_7sc_core4waitEi.exit2
  call void @llvm.dbg.value(metadata !{i1* %iosc_timer_Val}, i64 0, metadata !1833), !dbg !1839 ; [debug line = 166:90@180:66@20:8] [debug variable = P]
  %tmp_1 = call i1 @_ssdm_op_Read.ap_auto.volatile.i1P(i1* %iosc_timer_Val), !dbg !1845 ; [#uses=1 type=i1] [debug line = 166:95@180:66@20:8]
  call void @llvm.dbg.value(metadata !{i1 %tmp_1}, i64 0, metadata !1847), !dbg !1840 ; [debug line = 180:66@20:8] [debug variable = tmp]
  %v_V_2 = trunc i8 %v_assign to i4               ; [#uses=2 type=i4]
  br i1 %tmp_1, label %1, label %2, !dbg !1843    ; [debug line = 20:8]

; <label>:1                                       ; preds = %0
  %count_2 = add i8 %v_assign, 1, !dbg !1848      ; [#uses=1 type=i8] [debug line = 22:5]
  call void @llvm.dbg.value(metadata !{i8 %count_2}, i64 0, metadata !1850), !dbg !1848 ; [debug line = 22:5] [debug variable = count]
  call void @llvm.dbg.value(metadata !{i8 %count_2}, i64 0, metadata !1851), !dbg !1853 ; [debug line = 340:69@22:5] [debug variable = v]
  call void @llvm.dbg.value(metadata !{i8 %count_2}, i64 0, metadata !1854), !dbg !1856 ; [debug line = 340:69@340:92@22:5] [debug variable = v]
  call void @llvm.dbg.value(metadata !{i8 %count_2}, i64 0, metadata !1223), !dbg !1858 ; [debug line = 1453:78@340:90@340:92@22:5] [debug variable = op]
  %v_V_1 = add i4 %v_V_2, 1, !dbg !1860           ; [#uses=1 type=i4] [debug line = 1453:84@340:90@340:92@22:5]
  call void @llvm.dbg.value(metadata !{i4 %v_V_1}, i64 0, metadata !1862), !dbg !1870 ; [debug line = 206:21@427:73@22:5] [debug variable = v.V]
  call void @_ssdm_op_Write.ap_auto.volatile.i4P(i4* %iosc_outLeds_m_if_Val_V, i4 %v_V_1), !dbg !1874 ; [debug line = 365:13@56:100@207:13@427:73@22:5]
  store i8 %count_2, i8* %count, !dbg !1858       ; [debug line = 1453:78@340:90@340:92@22:5]
  br label %_ZN7_ap_sc_7sc_core4waitEi.exit2.backedge, !dbg !1885 ; [debug line = 23:4]

; <label>:2                                       ; preds = %0
  call void @llvm.dbg.value(metadata !{i8 %v_assign}, i64 0, metadata !1851), !dbg !1886 ; [debug line = 340:69@26:5] [debug variable = v]
  call void @llvm.dbg.value(metadata !{i8 %v_assign}, i64 0, metadata !1854), !dbg !1889 ; [debug line = 340:69@340:92@26:5] [debug variable = v]
  call void @llvm.dbg.value(metadata !{i8 %v_assign}, i64 0, metadata !1223), !dbg !1891 ; [debug line = 1453:78@340:90@340:92@26:5] [debug variable = op]
  call void @llvm.dbg.value(metadata !{i4 %v_V_2}, i64 0, metadata !1862), !dbg !1893 ; [debug line = 206:21@427:73@26:5] [debug variable = v.V]
  call void @_ssdm_op_Write.ap_auto.volatile.i4P(i4* %iosc_outLeds_m_if_Val_V, i4 %v_V_2), !dbg !1895 ; [debug line = 365:13@56:100@207:13@427:73@26:5]
  store i8 %v_assign, i8* %count, !dbg !1891      ; [debug line = 1453:78@340:90@340:92@26:5]
  br label %_ZN7_ap_sc_7sc_core4waitEi.exit2.backedge

; <label>:3                                       ; preds = %_ZN7_ap_sc_7sc_core4waitEi.exit2
  %val_V_4 = call i4 @_ssdm_op_Read.ap_auto.volatile.i4P(i4* %iosc_inSwitch_m_if_Val_V), !dbg !1898 ; [#uses=1 type=i4] [debug line = 374:13@60:21@180:66@351:73@31:14]
  call void @llvm.dbg.value(metadata !{i4 %val_V_4}, i64 0, metadata !1273), !dbg !1898 ; [debug line = 374:13@60:21@180:66@351:73@31:14] [debug variable = val.V]
  %val_V_5 = call i4 @_ssdm_op_Read.ap_auto.volatile.i4P(i4* %iosc_ctrl_m_if_Val_V), !dbg !1904 ; [#uses=1 type=i4] [debug line = 374:13@60:21@180:66@351:73@31:32]
  call void @llvm.dbg.value(metadata !{i4 %val_V_5}, i64 0, metadata !1273), !dbg !1904 ; [debug line = 374:13@60:21@180:66@351:73@31:32] [debug variable = val.V]
  call void @llvm.dbg.value(metadata !{i4 %val_V_4}, i64 0, metadata !1909), !dbg !1918 ; [debug line = 3374:0@31:32] [debug variable = lhs.V]
  call void @llvm.dbg.value(metadata !{i4 %val_V_5}, i64 0, metadata !1919), !dbg !1918 ; [debug line = 3374:0@31:32] [debug variable = rhs.V]
  %r_V = and i4 %val_V_5, %val_V_4, !dbg !1918    ; [#uses=2 type=i4] [debug line = 3374:0@31:32]
  call void @llvm.dbg.value(metadata !{i4 %r_V}, i64 0, metadata !1921), !dbg !1918 ; [debug line = 3374:0@31:32] [debug variable = r.V]
  call void @_ssdm_op_Write.ap_auto.i4P(i4* %iosc_switchs_V, i4 %r_V), !dbg !1924 ; [debug line = 378:13@31:32]
  call void @llvm.dbg.value(metadata !{i4 %r_V}, i64 0, metadata !1862), !dbg !1927 ; [debug line = 206:21@427:73@32:4] [debug variable = v.V]
  call void @_ssdm_op_Write.ap_auto.volatile.i4P(i4* %iosc_outLeds_m_if_Val_V, i4 %r_V), !dbg !1930 ; [debug line = 365:13@56:100@207:13@427:73@32:4]
  store i8 %v_assign, i8* %count, !dbg !1891      ; [debug line = 1453:78@340:90@340:92@26:5]
  br label %_ZN7_ap_sc_7sc_core4waitEi.exit2.backedge

_ZN7_ap_sc_7sc_core4waitEi.exit2.backedge:        ; preds = %3, %2, %1
  br label %_ZN7_ap_sc_7sc_core4waitEi.exit2
}

; [#uses=3]
define weak void @_ssdm_op_Write.ap_auto.volatile.i4P(i4*, i4) {
entry:
  store i4 %1, i4* %0
  ret void
}

; [#uses=3]
define weak void @_ssdm_op_Write.ap_auto.volatile.i1P(i1*, i1) {
entry:
  store i1 %1, i1* %0
  ret void
}

; [#uses=1]
define weak void @_ssdm_op_Write.ap_auto.i4P(i4*, i4) {
entry:
  store i4 %1, i4* %0
  ret void
}

; [#uses=4]
define weak void @_ssdm_op_Wait(...) nounwind {
entry:
  ret void
}

; [#uses=1]
define weak void @_ssdm_op_SpecTopModule(...) nounwind {
entry:
  ret void
}

; [#uses=2]
define weak i32 @_ssdm_op_SpecStateEnd(...) nounwind {
entry:
  ret i32 0
}

; [#uses=2]
define weak i32 @_ssdm_op_SpecStateBegin(...) nounwind {
entry:
  ret i32 0
}

; [#uses=3]
define weak void @_ssdm_op_SpecSensitive(...) nounwind {
entry:
  ret void
}

; [#uses=2]
define weak i32 @_ssdm_op_SpecRegionEnd(...) {
entry:
  ret i32 0
}

; [#uses=2]
define weak i32 @_ssdm_op_SpecRegionBegin(...) {
entry:
  ret i32 0
}

; [#uses=2]
define weak void @_ssdm_op_SpecProtocol(...) nounwind {
entry:
  ret void
}

; [#uses=2]
define weak void @_ssdm_op_SpecProcessDef(...) nounwind {
entry:
  ret void
}

; [#uses=2]
define weak void @_ssdm_op_SpecProcessDecl(...) nounwind {
entry:
  ret void
}

; [#uses=15]
define weak void @_ssdm_op_SpecPort(...) nounwind {
entry:
  ret void
}

; [#uses=3]
define weak void @_ssdm_op_SpecIFCore(...) {
entry:
  ret void
}

; [#uses=1]
define weak void @_ssdm_op_SpecChannel(...) nounwind {
entry:
  ret void
}

; [#uses=21]
define weak void @_ssdm_op_SpecBitsMap(...) {
entry:
  ret void
}

; [#uses=4]
define weak i4 @_ssdm_op_Read.ap_auto.volatile.i4P(i4*) {
entry:
  %empty = load i4* %0                            ; [#uses=1 type=i4]
  ret i4 %empty
}

; [#uses=1]
define weak i1 @_ssdm_op_Read.ap_auto.volatile.i1P(i1*) {
entry:
  %empty = load i1* %0                            ; [#uses=1 type=i1]
  ret i1 %empty
}

; [#uses=0]
declare i4 @_ssdm_op_PartSelect.i4.i8.i32.i32(i8, i32, i32) nounwind readnone

; [#uses=1]
declare void @_GLOBAL__I_a() nounwind

!opencl.kernels = !{!0, !0, !7, !13, !19, !19, !0, !0, !22, !25, !0, !28, !28, !31, !32, !33, !34, !22, !36, !38, !38, !0, !40, !0, !0, !42, !45, !0, !0, !0, !47, !49, !49, !54, !54, !0, !0, !0, !0, !0, !0, !0, !0, !0, !0, !0, !0, !0, !0, !0, !0, !0, !0, !0, !0, !0, !56}
!hls.encrypted.func = !{}
!llvm.map.gv = !{!58, !65, !70}

!0 = metadata !{null, metadata !1, metadata !2, metadata !3, metadata !4, metadata !5, metadata !6}
!1 = metadata !{metadata !"kernel_arg_addr_space"}
!2 = metadata !{metadata !"kernel_arg_access_qual"}
!3 = metadata !{metadata !"kernel_arg_type"}
!4 = metadata !{metadata !"kernel_arg_type_qual"}
!5 = metadata !{metadata !"kernel_arg_name"}
!6 = metadata !{metadata !"reqd_work_group_size", i32 1, i32 1, i32 1}
!7 = metadata !{null, metadata !8, metadata !9, metadata !10, metadata !11, metadata !12, metadata !6}
!8 = metadata !{metadata !"kernel_arg_addr_space", i32 0}
!9 = metadata !{metadata !"kernel_arg_access_qual", metadata !"none"}
!10 = metadata !{metadata !"kernel_arg_type", metadata !"const int &"}
!11 = metadata !{metadata !"kernel_arg_type_qual", metadata !""}
!12 = metadata !{metadata !"kernel_arg_name", metadata !"v2"}
!13 = metadata !{null, metadata !14, metadata !15, metadata !16, metadata !17, metadata !18, metadata !6}
!14 = metadata !{metadata !"kernel_arg_addr_space", i32 0, i32 0}
!15 = metadata !{metadata !"kernel_arg_access_qual", metadata !"none", metadata !"none"}
!16 = metadata !{metadata !"kernel_arg_type", metadata !"volatile _Bool &", metadata !"const _Bool &"}
!17 = metadata !{metadata !"kernel_arg_type_qual", metadata !"", metadata !""}
!18 = metadata !{metadata !"kernel_arg_name", metadata !"P", metadata !"val"}
!19 = metadata !{null, metadata !8, metadata !9, metadata !20, metadata !11, metadata !21, metadata !6}
!20 = metadata !{metadata !"kernel_arg_type", metadata !"const sc_uint_base &"}
!21 = metadata !{metadata !"kernel_arg_name", metadata !"op"}
!22 = metadata !{null, metadata !8, metadata !9, metadata !23, metadata !11, metadata !24, metadata !6}
!23 = metadata !{metadata !"kernel_arg_type", metadata !"const struct _ap_sc_::sc_dt::sc_uint<4> &"}
!24 = metadata !{metadata !"kernel_arg_name", metadata !"op2"}
!25 = metadata !{null, metadata !14, metadata !15, metadata !26, metadata !17, metadata !27, metadata !6}
!26 = metadata !{metadata !"kernel_arg_type", metadata !"const ap_int_base<4, false> &", metadata !"const ap_int_base<4, false> &"}
!27 = metadata !{metadata !"kernel_arg_name", metadata !"op", metadata !"op2"}
!28 = metadata !{null, metadata !8, metadata !9, metadata !29, metadata !11, metadata !30, metadata !6}
!29 = metadata !{metadata !"kernel_arg_type", metadata !"uchar"}
!30 = metadata !{metadata !"kernel_arg_name", metadata !"v"}
!31 = metadata !{null, metadata !8, metadata !9, metadata !29, metadata !11, metadata !21, metadata !6}
!32 = metadata !{null, metadata !8, metadata !9, metadata !23, metadata !11, metadata !30, metadata !6}
!33 = metadata !{null, metadata !8, metadata !9, metadata !23, metadata !11, metadata !12, metadata !6}
!34 = metadata !{null, metadata !14, metadata !15, metadata !35, metadata !17, metadata !18, metadata !6}
!35 = metadata !{metadata !"kernel_arg_type", metadata !"volatile sc_uint<4> &", metadata !"const struct _ap_sc_::sc_dt::sc_uint<4> &"}
!36 = metadata !{null, metadata !14, metadata !15, metadata !37, metadata !17, metadata !27, metadata !6}
!37 = metadata !{metadata !"kernel_arg_type", metadata !"const ap_int_base<4, false> &", metadata !"int"}
!38 = metadata !{null, metadata !8, metadata !9, metadata !39, metadata !11, metadata !21, metadata !6}
!39 = metadata !{metadata !"kernel_arg_type", metadata !"int"}
!40 = metadata !{null, metadata !8, metadata !9, metadata !41, metadata !11, metadata !24, metadata !6}
!41 = metadata !{metadata !"kernel_arg_type", metadata !"const ap_int_base<32, true> &"}
!42 = metadata !{null, metadata !8, metadata !9, metadata !43, metadata !11, metadata !44, metadata !6}
!43 = metadata !{metadata !"kernel_arg_type", metadata !"volatile sc_uint<4> &"}
!44 = metadata !{metadata !"kernel_arg_name", metadata !"P"}
!45 = metadata !{null, metadata !8, metadata !9, metadata !46, metadata !11, metadata !24, metadata !6}
!46 = metadata !{metadata !"kernel_arg_type", metadata !"const volatile struct _ap_sc_::sc_dt::sc_uint<4> &"}
!47 = metadata !{null, metadata !8, metadata !9, metadata !48, metadata !11, metadata !44, metadata !6}
!48 = metadata !{metadata !"kernel_arg_type", metadata !"volatile _Bool &"}
!49 = metadata !{null, metadata !50, metadata !9, metadata !51, metadata !52, metadata !53, metadata !6}
!50 = metadata !{metadata !"kernel_arg_addr_space", i32 1}
!51 = metadata !{metadata !"kernel_arg_type", metadata !"char*"}
!52 = metadata !{metadata !"kernel_arg_type_qual", metadata !"const"}
!53 = metadata !{metadata !"kernel_arg_name", metadata !""}
!54 = metadata !{null, metadata !8, metadata !9, metadata !55, metadata !11, metadata !53, metadata !6}
!55 = metadata !{metadata !"kernel_arg_type", metadata !"::sc_core::sc_module_name"}
!56 = metadata !{null, metadata !8, metadata !9, metadata !39, metadata !11, metadata !57, metadata !6}
!57 = metadata !{metadata !"kernel_arg_name", metadata !"n"}
!58 = metadata !{metadata !59, [1 x i32]* @llvm_global_ctors_0}
!59 = metadata !{metadata !60}
!60 = metadata !{i32 0, i32 31, metadata !61}
!61 = metadata !{metadata !62}
!62 = metadata !{metadata !"llvm.global_ctors.0", metadata !63, metadata !"", i32 0, i32 31}
!63 = metadata !{metadata !64}
!64 = metadata !{i32 0, i32 0, i32 1}
!65 = metadata !{metadata !66, i1* @iosc_ssdm_thread_M_timeThread}
!66 = metadata !{metadata !67}
!67 = metadata !{i32 0, i32 0, metadata !68}
!68 = metadata !{metadata !69}
!69 = metadata !{metadata !"iosc::__ssdm_thread_M_timeThread", metadata !63, metadata !"bool", i32 0, i32 0}
!70 = metadata !{metadata !71, i1* @iosc_ssdm_thread_M_iosThread}
!71 = metadata !{metadata !72}
!72 = metadata !{i32 0, i32 0, metadata !73}
!73 = metadata !{metadata !74}
!74 = metadata !{metadata !"iosc::__ssdm_thread_M_iosThread", metadata !63, metadata !"bool", i32 0, i32 0}
!75 = metadata !{i32 786688, metadata !76, metadata !"count", metadata !78, i32 40, metadata !236, i32 0, i32 0} ; [ DW_TAG_auto_variable ]
!76 = metadata !{i32 786443, metadata !77, i32 38, i32 1, metadata !78, i32 7} ; [ DW_TAG_lexical_block ]
!77 = metadata !{i32 786478, i32 0, null, metadata !"timeThread", metadata !"timeThread", metadata !"_ZN4iosc10timeThreadEv", metadata !78, i32 37, metadata !79, i1 false, i1 true, i32 0, i32 0, null, i32 256, i1 false, null, null, metadata !1043, metadata !101, i32 38} ; [ DW_TAG_subprogram ]
!78 = metadata !{i32 786473, metadata !"ios.cpp", metadata !"C:\5CERTS_Repo\5CAssignment_2\5CSC_IO_test", null} ; [ DW_TAG_file_type ]
!79 = metadata !{i32 786453, i32 0, metadata !"", i32 0, i32 0, i64 0, i64 0, i64 0, i32 0, null, metadata !80, i32 0, i32 0} ; [ DW_TAG_subroutine_type ]
!80 = metadata !{null, metadata !81}
!81 = metadata !{i32 786447, i32 0, metadata !"", i32 0, i32 0, i64 32, i64 32, i64 0, i32 64, metadata !82} ; [ DW_TAG_pointer_type ]
!82 = metadata !{i32 786434, null, metadata !"iosc", metadata !83, i32 6, i64 56, i64 8, i32 0, i32 0, null, metadata !84, i32 0, null, null} ; [ DW_TAG_class_type ]
!83 = metadata !{i32 786473, metadata !"./ios.h", metadata !"C:\5CERTS_Repo\5CAssignment_2\5CSC_IO_test", null} ; [ DW_TAG_file_type ]
!84 = metadata !{metadata !85, metadata !201, metadata !202, metadata !909, metadata !910, metadata !1009, metadata !1041, metadata !1042, metadata !1043, metadata !1044}
!85 = metadata !{i32 786445, metadata !82, metadata !"clk", metadata !83, i32 9, i64 8, i64 8, i64 0, i32 0, metadata !86} ; [ DW_TAG_member ]
!86 = metadata !{i32 786434, metadata !87, metadata !"sc_in<bool>", metadata !89, i32 370, i64 8, i64 8, i32 0, i32 0, null, metadata !90, i32 0, null, metadata !135} ; [ DW_TAG_class_type ]
!87 = metadata !{i32 786489, metadata !88, metadata !"sc_core", metadata !89, i32 163} ; [ DW_TAG_namespace ]
!88 = metadata !{i32 786489, null, metadata !"_ap_sc_", metadata !89, i32 160} ; [ DW_TAG_namespace ]
!89 = metadata !{i32 786473, metadata !"C:/Xilinx/Vivado_HLS/2017.2/common/technology/autopilot/ap_sysc/ap_sc_core.h", metadata !"C:\5CERTS_Repo\5CAssignment_2\5CSC_IO_test", null} ; [ DW_TAG_file_type ]
!90 = metadata !{metadata !91, metadata !170, metadata !175, metadata !176, metadata !180, metadata !183, metadata !186, metadata !189}
!91 = metadata !{i32 786460, metadata !86, null, metadata !89, i32 0, i64 0, i64 0, i64 0, i32 0, metadata !92} ; [ DW_TAG_inheritance ]
!92 = metadata !{i32 786434, metadata !87, metadata !"sc_port_b<_ap_sc_::sc_core::sc_signal_in_if<bool> >", metadata !89, i32 281, i64 8, i64 8, i32 0, i32 0, null, metadata !93, i32 0, null, metadata !168} ; [ DW_TAG_class_type ]
!93 = metadata !{metadata !94, metadata !103, metadata !137, metadata !141, metadata !147, metadata !151, metadata !152, metadata !158, metadata !159, metadata !163, metadata !164}
!94 = metadata !{i32 786460, metadata !92, null, metadata !89, i32 0, i64 0, i64 0, i64 0, i32 0, metadata !95} ; [ DW_TAG_inheritance ]
!95 = metadata !{i32 786434, metadata !87, metadata !"sc_port_base", metadata !89, i32 278, i64 8, i64 8, i32 0, i32 0, null, metadata !96, i32 0, null, null} ; [ DW_TAG_class_type ]
!96 = metadata !{metadata !97}
!97 = metadata !{i32 786478, i32 0, metadata !95, metadata !"sc_port_base", metadata !"sc_port_base", metadata !"", metadata !89, i32 278, metadata !98, i1 false, i1 false, i32 0, i32 0, null, i32 256, i1 false, null, null, i32 0, metadata !101, i32 278} ; [ DW_TAG_subprogram ]
!98 = metadata !{i32 786453, i32 0, metadata !"", i32 0, i32 0, i64 0, i64 0, i64 0, i32 0, null, metadata !99, i32 0, i32 0} ; [ DW_TAG_subroutine_type ]
!99 = metadata !{null, metadata !100}
!100 = metadata !{i32 786447, i32 0, metadata !"", i32 0, i32 0, i64 32, i64 32, i64 0, i32 64, metadata !95} ; [ DW_TAG_pointer_type ]
!101 = metadata !{metadata !102}
!102 = metadata !{i32 786468}                     ; [ DW_TAG_base_type ]
!103 = metadata !{i32 786445, metadata !92, metadata !"m_if", metadata !89, i32 283, i64 8, i64 8, i64 0, i32 0, metadata !104} ; [ DW_TAG_member ]
!104 = metadata !{i32 786434, metadata !87, metadata !"sc_signal_in_if<bool>", metadata !89, i32 172, i64 8, i64 8, i32 0, i32 0, null, metadata !105, i32 0, null, metadata !135} ; [ DW_TAG_class_type ]
!105 = metadata !{metadata !106, metadata !113, metadata !116, metadata !120, metadata !123, metadata !128, metadata !132}
!106 = metadata !{i32 786460, metadata !104, null, metadata !89, i32 0, i64 0, i64 0, i64 0, i32 0, metadata !107} ; [ DW_TAG_inheritance ]
!107 = metadata !{i32 786434, metadata !87, metadata !"sc_interface", metadata !89, i32 165, i64 8, i64 8, i32 0, i32 0, null, metadata !108, i32 0, null, null} ; [ DW_TAG_class_type ]
!108 = metadata !{metadata !109}
!109 = metadata !{i32 786478, i32 0, metadata !107, metadata !"sc_interface", metadata !"sc_interface", metadata !"", metadata !89, i32 165, metadata !110, i1 false, i1 false, i32 0, i32 0, null, i32 256, i1 false, null, null, i32 0, metadata !101, i32 165} ; [ DW_TAG_subprogram ]
!110 = metadata !{i32 786453, i32 0, metadata !"", i32 0, i32 0, i64 0, i64 0, i64 0, i32 0, null, metadata !111, i32 0, i32 0} ; [ DW_TAG_subroutine_type ]
!111 = metadata !{null, metadata !112}
!112 = metadata !{i32 786447, i32 0, metadata !"", i32 0, i32 0, i64 32, i64 32, i64 0, i32 64, metadata !107} ; [ DW_TAG_pointer_type ]
!113 = metadata !{i32 786445, metadata !104, metadata !"Val", metadata !89, i32 174, i64 8, i64 8, i64 0, i32 0, metadata !114} ; [ DW_TAG_member ]
!114 = metadata !{i32 786485, null, metadata !"", null, i32 0, i64 0, i64 0, i64 0, i32 0, metadata !115} ; [ DW_TAG_volatile_type ]
!115 = metadata !{i32 786468, null, metadata !"bool", null, i32 0, i64 8, i64 8, i64 0, i32 0, i32 2} ; [ DW_TAG_base_type ]
!116 = metadata !{i32 786478, i32 0, metadata !104, metadata !"sc_signal_in_if", metadata !"sc_signal_in_if", metadata !"", metadata !89, i32 176, metadata !117, i1 false, i1 false, i32 0, i32 0, null, i32 256, i1 false, null, null, i32 0, metadata !101, i32 176} ; [ DW_TAG_subprogram ]
!117 = metadata !{i32 786453, i32 0, metadata !"", i32 0, i32 0, i64 0, i64 0, i64 0, i32 0, null, metadata !118, i32 0, i32 0} ; [ DW_TAG_subroutine_type ]
!118 = metadata !{null, metadata !119}
!119 = metadata !{i32 786447, i32 0, metadata !"", i32 0, i32 0, i64 32, i64 32, i64 0, i32 64, metadata !104} ; [ DW_TAG_pointer_type ]
!120 = metadata !{i32 786478, i32 0, metadata !104, metadata !"read", metadata !"read", metadata !"_ZN7_ap_sc_7sc_core15sc_signal_in_ifIbE4readEv", metadata !89, i32 180, metadata !121, i1 false, i1 false, i32 0, i32 0, null, i32 256, i1 false, null, null, i32 0, metadata !101, i32 180} ; [ DW_TAG_subprogram ]
!121 = metadata !{i32 786453, i32 0, metadata !"", i32 0, i32 0, i64 0, i64 0, i64 0, i32 0, null, metadata !122, i32 0, i32 0} ; [ DW_TAG_subroutine_type ]
!122 = metadata !{metadata !115, metadata !119}
!123 = metadata !{i32 786478, i32 0, metadata !104, metadata !"read", metadata !"read", metadata !"_ZNK7_ap_sc_7sc_core15sc_signal_in_ifIbE4readEv", metadata !89, i32 181, metadata !124, i1 false, i1 false, i32 0, i32 0, null, i32 256, i1 false, null, null, i32 0, metadata !101, i32 181} ; [ DW_TAG_subprogram ]
!124 = metadata !{i32 786453, i32 0, metadata !"", i32 0, i32 0, i64 0, i64 0, i64 0, i32 0, null, metadata !125, i32 0, i32 0} ; [ DW_TAG_subroutine_type ]
!125 = metadata !{metadata !115, metadata !126}
!126 = metadata !{i32 786447, i32 0, metadata !"", i32 0, i32 0, i64 32, i64 32, i64 0, i32 64, metadata !127} ; [ DW_TAG_pointer_type ]
!127 = metadata !{i32 786470, null, metadata !"", null, i32 0, i64 0, i64 0, i64 0, i32 0, metadata !104} ; [ DW_TAG_const_type ]
!128 = metadata !{i32 786478, i32 0, metadata !104, metadata !"operator const _Bool", metadata !"operator const _Bool", metadata !"_ZN7_ap_sc_7sc_core15sc_signal_in_ifIbEcvKbEv", metadata !89, i32 187, metadata !129, i1 false, i1 false, i32 0, i32 0, null, i32 256, i1 false, null, null, i32 0, metadata !101, i32 187} ; [ DW_TAG_subprogram ]
!129 = metadata !{i32 786453, i32 0, metadata !"", i32 0, i32 0, i64 0, i64 0, i64 0, i32 0, null, metadata !130, i32 0, i32 0} ; [ DW_TAG_subroutine_type ]
!130 = metadata !{metadata !131, metadata !119}
!131 = metadata !{i32 786470, null, metadata !"", null, i32 0, i64 0, i64 0, i64 0, i32 0, metadata !115} ; [ DW_TAG_const_type ]
!132 = metadata !{i32 786478, i32 0, metadata !104, metadata !"operator const _Bool", metadata !"operator const _Bool", metadata !"_ZNK7_ap_sc_7sc_core15sc_signal_in_ifIbEcvKbEv", metadata !89, i32 188, metadata !133, i1 false, i1 false, i32 0, i32 0, null, i32 256, i1 false, null, null, i32 0, metadata !101, i32 188} ; [ DW_TAG_subprogram ]
!133 = metadata !{i32 786453, i32 0, metadata !"", i32 0, i32 0, i64 0, i64 0, i64 0, i32 0, null, metadata !134, i32 0, i32 0} ; [ DW_TAG_subroutine_type ]
!134 = metadata !{metadata !131, metadata !126}
!135 = metadata !{metadata !136}
!136 = metadata !{i32 786479, null, metadata !"T", metadata !115, null, i32 0, i32 0} ; [ DW_TAG_template_type_parameter ]
!137 = metadata !{i32 786478, i32 0, metadata !92, metadata !"sc_port_b", metadata !"sc_port_b", metadata !"", metadata !89, i32 285, metadata !138, i1 false, i1 false, i32 0, i32 0, null, i32 256, i1 false, null, null, i32 0, metadata !101, i32 285} ; [ DW_TAG_subprogram ]
!138 = metadata !{i32 786453, i32 0, metadata !"", i32 0, i32 0, i64 0, i64 0, i64 0, i32 0, null, metadata !139, i32 0, i32 0} ; [ DW_TAG_subroutine_type ]
!139 = metadata !{null, metadata !140}
!140 = metadata !{i32 786447, i32 0, metadata !"", i32 0, i32 0, i64 32, i64 32, i64 0, i32 64, metadata !92} ; [ DW_TAG_pointer_type ]
!141 = metadata !{i32 786478, i32 0, metadata !92, metadata !"sc_port_b", metadata !"sc_port_b", metadata !"", metadata !89, i32 286, metadata !142, i1 false, i1 false, i32 0, i32 0, null, i32 384, i1 false, null, null, i32 0, metadata !101, i32 286} ; [ DW_TAG_subprogram ]
!142 = metadata !{i32 786453, i32 0, metadata !"", i32 0, i32 0, i64 0, i64 0, i64 0, i32 0, null, metadata !143, i32 0, i32 0} ; [ DW_TAG_subroutine_type ]
!143 = metadata !{null, metadata !140, metadata !144}
!144 = metadata !{i32 786447, null, metadata !"", null, i32 0, i64 32, i64 32, i64 0, i32 0, metadata !145} ; [ DW_TAG_pointer_type ]
!145 = metadata !{i32 786470, null, metadata !"", null, i32 0, i64 0, i64 0, i64 0, i32 0, metadata !146} ; [ DW_TAG_const_type ]
!146 = metadata !{i32 786468, null, metadata !"char", null, i32 0, i64 8, i64 8, i64 0, i32 0, i32 6} ; [ DW_TAG_base_type ]
!147 = metadata !{i32 786478, i32 0, metadata !92, metadata !"bind", metadata !"bind", metadata !"_ZN7_ap_sc_7sc_core9sc_port_bINS0_15sc_signal_in_ifIbEEE4bindERS3_", metadata !89, i32 290, metadata !148, i1 false, i1 false, i32 0, i32 0, null, i32 256, i1 false, null, null, i32 0, metadata !101, i32 290} ; [ DW_TAG_subprogram ]
!148 = metadata !{i32 786453, i32 0, metadata !"", i32 0, i32 0, i64 0, i64 0, i64 0, i32 0, null, metadata !149, i32 0, i32 0} ; [ DW_TAG_subroutine_type ]
!149 = metadata !{null, metadata !140, metadata !150}
!150 = metadata !{i32 786448, null, null, null, i32 0, i64 0, i64 0, i64 0, i32 0, metadata !104} ; [ DW_TAG_reference_type ]
!151 = metadata !{i32 786478, i32 0, metadata !92, metadata !"operator()", metadata !"operator()", metadata !"_ZN7_ap_sc_7sc_core9sc_port_bINS0_15sc_signal_in_ifIbEEEclERS3_", metadata !89, i32 293, metadata !148, i1 false, i1 false, i32 0, i32 0, null, i32 256, i1 false, null, null, i32 0, metadata !101, i32 293} ; [ DW_TAG_subprogram ]
!152 = metadata !{i32 786478, i32 0, metadata !92, metadata !"bind", metadata !"bind", metadata !"_ZN7_ap_sc_7sc_core9sc_port_bINS0_15sc_signal_in_ifIbEEE4bindERNS0_15sc_prim_channelE", metadata !89, i32 294, metadata !153, i1 false, i1 false, i32 0, i32 0, null, i32 256, i1 false, null, null, i32 0, metadata !101, i32 294} ; [ DW_TAG_subprogram ]
!153 = metadata !{i32 786453, i32 0, metadata !"", i32 0, i32 0, i64 0, i64 0, i64 0, i32 0, null, metadata !154, i32 0, i32 0} ; [ DW_TAG_subroutine_type ]
!154 = metadata !{null, metadata !140, metadata !155}
!155 = metadata !{i32 786448, null, null, null, i32 0, i64 0, i64 0, i64 0, i32 0, metadata !156} ; [ DW_TAG_reference_type ]
!156 = metadata !{i32 786434, metadata !87, metadata !"sc_prim_channel", metadata !89, i32 166, i64 8, i64 8, i32 0, i32 0, null, metadata !157, i32 0, null, null} ; [ DW_TAG_class_type ]
!157 = metadata !{i32 0}
!158 = metadata !{i32 786478, i32 0, metadata !92, metadata !"operator()", metadata !"operator()", metadata !"_ZN7_ap_sc_7sc_core9sc_port_bINS0_15sc_signal_in_ifIbEEEclERNS0_15sc_prim_channelE", metadata !89, i32 297, metadata !153, i1 false, i1 false, i32 0, i32 0, null, i32 256, i1 false, null, null, i32 0, metadata !101, i32 297} ; [ DW_TAG_subprogram ]
!159 = metadata !{i32 786478, i32 0, metadata !92, metadata !"bind", metadata !"bind", metadata !"_ZN7_ap_sc_7sc_core9sc_port_bINS0_15sc_signal_in_ifIbEEE4bindERS4_", metadata !89, i32 298, metadata !160, i1 false, i1 false, i32 0, i32 0, null, i32 256, i1 false, null, null, i32 0, metadata !101, i32 298} ; [ DW_TAG_subprogram ]
!160 = metadata !{i32 786453, i32 0, metadata !"", i32 0, i32 0, i64 0, i64 0, i64 0, i32 0, null, metadata !161, i32 0, i32 0} ; [ DW_TAG_subroutine_type ]
!161 = metadata !{null, metadata !140, metadata !162}
!162 = metadata !{i32 786448, null, null, null, i32 0, i64 0, i64 0, i64 0, i32 0, metadata !92} ; [ DW_TAG_reference_type ]
!163 = metadata !{i32 786478, i32 0, metadata !92, metadata !"operator()", metadata !"operator()", metadata !"_ZN7_ap_sc_7sc_core9sc_port_bINS0_15sc_signal_in_ifIbEEEclERS4_", metadata !89, i32 299, metadata !160, i1 false, i1 false, i32 0, i32 0, null, i32 256, i1 false, null, null, i32 0, metadata !101, i32 299} ; [ DW_TAG_subprogram ]
!164 = metadata !{i32 786478, i32 0, metadata !92, metadata !"operator->", metadata !"operator->", metadata !"_ZN7_ap_sc_7sc_core9sc_port_bINS0_15sc_signal_in_ifIbEEEptEv", metadata !89, i32 301, metadata !165, i1 false, i1 false, i32 0, i32 0, null, i32 256, i1 false, null, null, i32 0, metadata !101, i32 301} ; [ DW_TAG_subprogram ]
!165 = metadata !{i32 786453, i32 0, metadata !"", i32 0, i32 0, i64 0, i64 0, i64 0, i32 0, null, metadata !166, i32 0, i32 0} ; [ DW_TAG_subroutine_type ]
!166 = metadata !{metadata !167, metadata !140}
!167 = metadata !{i32 786447, null, metadata !"", null, i32 0, i64 32, i64 32, i64 0, i32 0, metadata !104} ; [ DW_TAG_pointer_type ]
!168 = metadata !{metadata !169}
!169 = metadata !{i32 786479, null, metadata !"IF", metadata !104, null, i32 0, i32 0} ; [ DW_TAG_template_type_parameter ]
!170 = metadata !{i32 786478, i32 0, metadata !86, metadata !"pos", metadata !"pos", metadata !"_ZNK7_ap_sc_7sc_core5sc_inIbE3posEv", metadata !89, i32 375, metadata !171, i1 false, i1 false, i32 0, i32 0, null, i32 256, i1 false, null, null, i32 0, metadata !101, i32 375} ; [ DW_TAG_subprogram ]
!171 = metadata !{i32 786453, i32 0, metadata !"", i32 0, i32 0, i64 0, i64 0, i64 0, i32 0, null, metadata !172, i32 0, i32 0} ; [ DW_TAG_subroutine_type ]
!172 = metadata !{null, metadata !173}
!173 = metadata !{i32 786447, i32 0, metadata !"", i32 0, i32 0, i64 32, i64 32, i64 0, i32 64, metadata !174} ; [ DW_TAG_pointer_type ]
!174 = metadata !{i32 786470, null, metadata !"", null, i32 0, i64 0, i64 0, i64 0, i32 0, metadata !86} ; [ DW_TAG_const_type ]
!175 = metadata !{i32 786478, i32 0, metadata !86, metadata !"neg", metadata !"neg", metadata !"_ZNK7_ap_sc_7sc_core5sc_inIbE3negEv", metadata !89, i32 376, metadata !171, i1 false, i1 false, i32 0, i32 0, null, i32 256, i1 false, null, null, i32 0, metadata !101, i32 376} ; [ DW_TAG_subprogram ]
!176 = metadata !{i32 786478, i32 0, metadata !86, metadata !"sc_in", metadata !"sc_in", metadata !"", metadata !89, i32 378, metadata !177, i1 false, i1 false, i32 0, i32 0, null, i32 256, i1 false, null, null, i32 0, metadata !101, i32 378} ; [ DW_TAG_subprogram ]
!177 = metadata !{i32 786453, i32 0, metadata !"", i32 0, i32 0, i64 0, i64 0, i64 0, i32 0, null, metadata !178, i32 0, i32 0} ; [ DW_TAG_subroutine_type ]
!178 = metadata !{null, metadata !179}
!179 = metadata !{i32 786447, i32 0, metadata !"", i32 0, i32 0, i64 32, i64 32, i64 0, i32 64, metadata !86} ; [ DW_TAG_pointer_type ]
!180 = metadata !{i32 786478, i32 0, metadata !86, metadata !"sc_in", metadata !"sc_in", metadata !"", metadata !89, i32 379, metadata !181, i1 false, i1 false, i32 0, i32 0, null, i32 384, i1 false, null, null, i32 0, metadata !101, i32 379} ; [ DW_TAG_subprogram ]
!181 = metadata !{i32 786453, i32 0, metadata !"", i32 0, i32 0, i64 0, i64 0, i64 0, i32 0, null, metadata !182, i32 0, i32 0} ; [ DW_TAG_subroutine_type ]
!182 = metadata !{null, metadata !179, metadata !144}
!183 = metadata !{i32 786478, i32 0, metadata !86, metadata !"read", metadata !"read", metadata !"_ZN7_ap_sc_7sc_core5sc_inIbE4readEv", metadata !89, i32 382, metadata !184, i1 false, i1 false, i32 0, i32 0, null, i32 256, i1 false, null, null, i32 0, metadata !101, i32 382} ; [ DW_TAG_subprogram ]
!184 = metadata !{i32 786453, i32 0, metadata !"", i32 0, i32 0, i64 0, i64 0, i64 0, i32 0, null, metadata !185, i32 0, i32 0} ; [ DW_TAG_subroutine_type ]
!185 = metadata !{metadata !115, metadata !179}
!186 = metadata !{i32 786478, i32 0, metadata !86, metadata !"operator const _Bool", metadata !"operator const _Bool", metadata !"_ZN7_ap_sc_7sc_core5sc_inIbEcvKbEv", metadata !89, i32 383, metadata !187, i1 false, i1 false, i32 0, i32 0, null, i32 256, i1 false, null, null, i32 0, metadata !101, i32 383} ; [ DW_TAG_subprogram ]
!187 = metadata !{i32 786453, i32 0, metadata !"", i32 0, i32 0, i64 0, i64 0, i64 0, i32 0, null, metadata !188, i32 0, i32 0} ; [ DW_TAG_subroutine_type ]
!188 = metadata !{metadata !131, metadata !179}
!189 = metadata !{i32 786478, i32 0, metadata !86, metadata !"delayed", metadata !"delayed", metadata !"_ZNK7_ap_sc_7sc_core5sc_inIbE7delayedEv", metadata !89, i32 386, metadata !190, i1 false, i1 false, i32 0, i32 0, null, i32 256, i1 false, null, null, i32 0, metadata !101, i32 386} ; [ DW_TAG_subprogram ]
!190 = metadata !{i32 786453, i32 0, metadata !"", i32 0, i32 0, i64 0, i64 0, i64 0, i32 0, null, metadata !191, i32 0, i32 0} ; [ DW_TAG_subroutine_type ]
!191 = metadata !{metadata !192, metadata !173}
!192 = metadata !{i32 786448, null, null, null, i32 0, i64 0, i64 0, i64 0, i32 0, metadata !193} ; [ DW_TAG_reference_type ]
!193 = metadata !{i32 786470, null, metadata !"", null, i32 0, i64 0, i64 0, i64 0, i32 0, metadata !194} ; [ DW_TAG_const_type ]
!194 = metadata !{i32 786434, metadata !87, metadata !"sc_signal_bool_deval", metadata !89, i32 268, i64 8, i64 8, i32 0, i32 0, null, metadata !195, i32 0, null, null} ; [ DW_TAG_class_type ]
!195 = metadata !{metadata !196}
!196 = metadata !{i32 786478, i32 0, metadata !194, metadata !"operator==", metadata !"operator==", metadata !"_ZNK7_ap_sc_7sc_core20sc_signal_bool_devaleqEb", metadata !89, i32 270, metadata !197, i1 false, i1 false, i32 0, i32 0, null, i32 256, i1 false, null, null, i32 0, metadata !101, i32 270} ; [ DW_TAG_subprogram ]
!197 = metadata !{i32 786453, i32 0, metadata !"", i32 0, i32 0, i64 0, i64 0, i64 0, i32 0, null, metadata !198, i32 0, i32 0} ; [ DW_TAG_subroutine_type ]
!198 = metadata !{metadata !199, metadata !200, metadata !115}
!199 = metadata !{i32 786448, null, null, null, i32 0, i64 0, i64 0, i64 0, i32 0, metadata !194} ; [ DW_TAG_reference_type ]
!200 = metadata !{i32 786447, i32 0, metadata !"", i32 0, i32 0, i64 32, i64 32, i64 0, i32 64, metadata !193} ; [ DW_TAG_pointer_type ]
!201 = metadata !{i32 786445, metadata !82, metadata !"reset", metadata !83, i32 10, i64 8, i64 8, i64 8, i32 0, metadata !86} ; [ DW_TAG_member ]
!202 = metadata !{i32 786445, metadata !82, metadata !"ctrl", metadata !83, i32 11, i64 8, i64 8, i64 16, i32 0, metadata !203} ; [ DW_TAG_member ]
!203 = metadata !{i32 786434, metadata !87, metadata !"sc_in<_ap_sc_::sc_dt::sc_uint<4> >", metadata !89, i32 342, i64 8, i64 8, i32 0, i32 0, null, metadata !204, i32 0, null, metadata !856} ; [ DW_TAG_class_type ]
!204 = metadata !{metadata !205, metadata !885, metadata !889, metadata !892, metadata !896, metadata !902, metadata !906}
!205 = metadata !{i32 786460, metadata !203, null, metadata !89, i32 0, i64 0, i64 0, i64 0, i32 0, metadata !206} ; [ DW_TAG_inheritance ]
!206 = metadata !{i32 786434, metadata !87, metadata !"sc_port_b<_ap_sc_::sc_core::sc_signal_in_if<_ap_sc_::sc_dt::sc_uint<4> > >", metadata !89, i32 281, i64 8, i64 8, i32 0, i32 0, null, metadata !207, i32 0, null, metadata !883} ; [ DW_TAG_class_type ]
!207 = metadata !{metadata !208, metadata !209, metadata !858, metadata !862, metadata !865, metadata !869, metadata !870, metadata !873, metadata !874, metadata !878, metadata !879}
!208 = metadata !{i32 786460, metadata !206, null, metadata !89, i32 0, i64 0, i64 0, i64 0, i32 0, metadata !95} ; [ DW_TAG_inheritance ]
!209 = metadata !{i32 786445, metadata !206, metadata !"m_if", metadata !89, i32 283, i64 8, i64 8, i64 0, i32 0, metadata !210} ; [ DW_TAG_member ]
!210 = metadata !{i32 786434, metadata !87, metadata !"sc_signal_in_if<_ap_sc_::sc_dt::sc_uint<4> >", metadata !89, i32 172, i64 8, i64 8, i32 0, i32 0, null, metadata !211, i32 0, null, metadata !856} ; [ DW_TAG_class_type ]
!211 = metadata !{metadata !212, metadata !213, metadata !838, metadata !842, metadata !845, metadata !850, metadata !853}
!212 = metadata !{i32 786460, metadata !210, null, metadata !89, i32 0, i64 0, i64 0, i64 0, i32 0, metadata !107} ; [ DW_TAG_inheritance ]
!213 = metadata !{i32 786445, metadata !210, metadata !"Val", metadata !89, i32 174, i64 8, i64 8, i64 0, i32 0, metadata !214} ; [ DW_TAG_member ]
!214 = metadata !{i32 786485, null, metadata !"", null, i32 0, i64 0, i64 0, i64 0, i32 0, metadata !215} ; [ DW_TAG_volatile_type ]
!215 = metadata !{i32 786434, metadata !216, metadata !"sc_uint<4>", metadata !218, i32 269, i64 8, i64 8, i32 0, i32 0, null, metadata !219, i32 0, null, metadata !836} ; [ DW_TAG_class_type ]
!216 = metadata !{i32 786489, metadata !217, metadata !"sc_dt", metadata !218, i32 67} ; [ DW_TAG_namespace ]
!217 = metadata !{i32 786489, null, metadata !"_ap_sc_", metadata !218, i32 64} ; [ DW_TAG_namespace ]
!218 = metadata !{i32 786473, metadata !"C:/Xilinx/Vivado_HLS/2017.2/common/technology/autopilot/ap_sysc/ap_sc_dt.h", metadata !"C:\5CERTS_Repo\5CAssignment_2\5CSC_IO_test", null} ; [ DW_TAG_file_type ]
!219 = metadata !{metadata !220, metadata !749, metadata !753, metadata !759, metadata !764, metadata !770, metadata !774, metadata !780, metadata !783, metadata !786, metadata !789, metadata !792, metadata !795, metadata !798, metadata !801, metadata !804, metadata !807, metadata !810, metadata !813, metadata !816, metadata !819, metadata !823, metadata !828, metadata !832, metadata !835}
!220 = metadata !{i32 786460, metadata !215, null, metadata !218, i32 0, i64 0, i64 0, i64 0, i32 0, metadata !221} ; [ DW_TAG_inheritance ]
!221 = metadata !{i32 786434, null, metadata !"ap_int_base<4, false, true>", metadata !222, i32 1388, i64 8, i64 8, i32 0, i32 0, null, metadata !223, i32 0, null, metadata !747} ; [ DW_TAG_class_type ]
!222 = metadata !{i32 786473, metadata !"C:/Xilinx/Vivado_HLS/2017.2/common/technology/autopilot\5Cap_int_syn.h", metadata !"C:\5CERTS_Repo\5CAssignment_2\5CSC_IO_test", null} ; [ DW_TAG_file_type ]
!223 = metadata !{metadata !224, metadata !238, metadata !242, metadata !250, metadata !256, metadata !259, metadata !263, metadata !267, metadata !271, metadata !275, metadata !278, metadata !282, metadata !286, metadata !290, metadata !295, metadata !300, metadata !305, metadata !309, metadata !313, metadata !316, metadata !319, metadata !323, metadata !326, metadata !329, metadata !330, metadata !334, metadata !337, metadata !340, metadata !343, metadata !346, metadata !349, metadata !352, metadata !355, metadata !358, metadata !361, metadata !364, metadata !367, metadata !376, metadata !379, metadata !382, metadata !385, metadata !388, metadata !391, metadata !394, metadata !397, metadata !400, metadata !403, metadata !406, metadata !409, metadata !412, metadata !413, metadata !417, metadata !420, metadata !421, metadata !422, metadata !423, metadata !424, metadata !425, metadata !428, metadata !429, metadata !432, metadata !433, metadata !434, metadata !435, metadata !436, metadata !437, metadata !440, metadata !441, metadata !442, metadata !445, metadata !446, metadata !449, metadata !450, metadata !707, metadata !711, metadata !712, metadata !715, metadata !716, metadata !720, metadata !721, metadata !722, metadata !723, metadata !726, metadata !727, metadata !728, metadata !729, metadata !730, metadata !731, metadata !732, metadata !733, metadata !734, metadata !735, metadata !736, metadata !737, metadata !740, metadata !743, metadata !746}
!224 = metadata !{i32 786460, metadata !221, null, metadata !222, i32 0, i64 0, i64 0, i64 0, i32 0, metadata !225} ; [ DW_TAG_inheritance ]
!225 = metadata !{i32 786434, null, metadata !"ssdm_int<4 + 1024 * 0, false>", metadata !226, i32 10, i64 8, i64 8, i32 0, i32 0, null, metadata !227, i32 0, null, metadata !234} ; [ DW_TAG_class_type ]
!226 = metadata !{i32 786473, metadata !"C:/Xilinx/Vivado_HLS/2017.2/common/technology/autopilot/etc/autopilot_dt.def", metadata !"C:\5CERTS_Repo\5CAssignment_2\5CSC_IO_test", null} ; [ DW_TAG_file_type ]
!227 = metadata !{metadata !228, metadata !230}
!228 = metadata !{i32 786445, metadata !225, metadata !"V", metadata !226, i32 10, i64 4, i64 4, i64 0, i32 0, metadata !229} ; [ DW_TAG_member ]
!229 = metadata !{i32 786468, null, metadata !"uint4", null, i32 0, i64 4, i64 4, i64 0, i32 0, i32 7} ; [ DW_TAG_base_type ]
!230 = metadata !{i32 786478, i32 0, metadata !225, metadata !"ssdm_int", metadata !"ssdm_int", metadata !"", metadata !226, i32 10, metadata !231, i1 false, i1 false, i32 0, i32 0, null, i32 256, i1 false, null, null, i32 0, metadata !101, i32 10} ; [ DW_TAG_subprogram ]
!231 = metadata !{i32 786453, i32 0, metadata !"", i32 0, i32 0, i64 0, i64 0, i64 0, i32 0, null, metadata !232, i32 0, i32 0} ; [ DW_TAG_subroutine_type ]
!232 = metadata !{null, metadata !233}
!233 = metadata !{i32 786447, i32 0, metadata !"", i32 0, i32 0, i64 32, i64 32, i64 0, i32 64, metadata !225} ; [ DW_TAG_pointer_type ]
!234 = metadata !{metadata !235, metadata !237}
!235 = metadata !{i32 786480, null, metadata !"_AP_N", metadata !236, i64 4, null, i32 0, i32 0} ; [ DW_TAG_template_value_parameter ]
!236 = metadata !{i32 786468, null, metadata !"int", null, i32 0, i64 32, i64 32, i64 0, i32 0, i32 5} ; [ DW_TAG_base_type ]
!237 = metadata !{i32 786480, null, metadata !"_AP_S", metadata !115, i64 0, null, i32 0, i32 0} ; [ DW_TAG_template_value_parameter ]
!238 = metadata !{i32 786478, i32 0, metadata !221, metadata !"ap_int_base", metadata !"ap_int_base", metadata !"", metadata !222, i32 1429, metadata !239, i1 false, i1 false, i32 0, i32 0, null, i32 256, i1 false, null, null, i32 0, metadata !101, i32 1429} ; [ DW_TAG_subprogram ]
!239 = metadata !{i32 786453, i32 0, metadata !"", i32 0, i32 0, i64 0, i64 0, i64 0, i32 0, null, metadata !240, i32 0, i32 0} ; [ DW_TAG_subroutine_type ]
!240 = metadata !{null, metadata !241}
!241 = metadata !{i32 786447, i32 0, metadata !"", i32 0, i32 0, i64 32, i64 32, i64 0, i32 64, metadata !221} ; [ DW_TAG_pointer_type ]
!242 = metadata !{i32 786478, i32 0, metadata !221, metadata !"ap_int_base<4, false>", metadata !"ap_int_base<4, false>", metadata !"", metadata !222, i32 1441, metadata !243, i1 false, i1 false, i32 0, i32 0, null, i32 256, i1 false, null, metadata !247, i32 0, metadata !101, i32 1441} ; [ DW_TAG_subprogram ]
!243 = metadata !{i32 786453, i32 0, metadata !"", i32 0, i32 0, i64 0, i64 0, i64 0, i32 0, null, metadata !244, i32 0, i32 0} ; [ DW_TAG_subroutine_type ]
!244 = metadata !{null, metadata !241, metadata !245}
!245 = metadata !{i32 786448, null, null, null, i32 0, i64 0, i64 0, i64 0, i32 0, metadata !246} ; [ DW_TAG_reference_type ]
!246 = metadata !{i32 786470, null, metadata !"", null, i32 0, i64 0, i64 0, i64 0, i32 0, metadata !221} ; [ DW_TAG_const_type ]
!247 = metadata !{metadata !248, metadata !249}
!248 = metadata !{i32 786480, null, metadata !"_AP_W2", metadata !236, i64 4, null, i32 0, i32 0} ; [ DW_TAG_template_value_parameter ]
!249 = metadata !{i32 786480, null, metadata !"_AP_S2", metadata !115, i64 0, null, i32 0, i32 0} ; [ DW_TAG_template_value_parameter ]
!250 = metadata !{i32 786478, i32 0, metadata !221, metadata !"ap_int_base<4, false>", metadata !"ap_int_base<4, false>", metadata !"", metadata !222, i32 1444, metadata !251, i1 false, i1 false, i32 0, i32 0, null, i32 256, i1 false, null, metadata !247, i32 0, metadata !101, i32 1444} ; [ DW_TAG_subprogram ]
!251 = metadata !{i32 786453, i32 0, metadata !"", i32 0, i32 0, i64 0, i64 0, i64 0, i32 0, null, metadata !252, i32 0, i32 0} ; [ DW_TAG_subroutine_type ]
!252 = metadata !{null, metadata !241, metadata !253}
!253 = metadata !{i32 786448, null, null, null, i32 0, i64 0, i64 0, i64 0, i32 0, metadata !254} ; [ DW_TAG_reference_type ]
!254 = metadata !{i32 786470, null, metadata !"", null, i32 0, i64 0, i64 0, i64 0, i32 0, metadata !255} ; [ DW_TAG_const_type ]
!255 = metadata !{i32 786485, null, metadata !"", null, i32 0, i64 0, i64 0, i64 0, i32 0, metadata !221} ; [ DW_TAG_volatile_type ]
!256 = metadata !{i32 786478, i32 0, metadata !221, metadata !"ap_int_base", metadata !"ap_int_base", metadata !"", metadata !222, i32 1451, metadata !257, i1 false, i1 false, i32 0, i32 0, null, i32 384, i1 false, null, null, i32 0, metadata !101, i32 1451} ; [ DW_TAG_subprogram ]
!257 = metadata !{i32 786453, i32 0, metadata !"", i32 0, i32 0, i64 0, i64 0, i64 0, i32 0, null, metadata !258, i32 0, i32 0} ; [ DW_TAG_subroutine_type ]
!258 = metadata !{null, metadata !241, metadata !115}
!259 = metadata !{i32 786478, i32 0, metadata !221, metadata !"ap_int_base", metadata !"ap_int_base", metadata !"", metadata !222, i32 1452, metadata !260, i1 false, i1 false, i32 0, i32 0, null, i32 384, i1 false, null, null, i32 0, metadata !101, i32 1452} ; [ DW_TAG_subprogram ]
!260 = metadata !{i32 786453, i32 0, metadata !"", i32 0, i32 0, i64 0, i64 0, i64 0, i32 0, null, metadata !261, i32 0, i32 0} ; [ DW_TAG_subroutine_type ]
!261 = metadata !{null, metadata !241, metadata !262}
!262 = metadata !{i32 786468, null, metadata !"signed char", null, i32 0, i64 8, i64 8, i64 0, i32 0, i32 6} ; [ DW_TAG_base_type ]
!263 = metadata !{i32 786478, i32 0, metadata !221, metadata !"ap_int_base", metadata !"ap_int_base", metadata !"", metadata !222, i32 1453, metadata !264, i1 false, i1 false, i32 0, i32 0, null, i32 384, i1 false, null, null, i32 0, metadata !101, i32 1453} ; [ DW_TAG_subprogram ]
!264 = metadata !{i32 786453, i32 0, metadata !"", i32 0, i32 0, i64 0, i64 0, i64 0, i32 0, null, metadata !265, i32 0, i32 0} ; [ DW_TAG_subroutine_type ]
!265 = metadata !{null, metadata !241, metadata !266}
!266 = metadata !{i32 786468, null, metadata !"unsigned char", null, i32 0, i64 8, i64 8, i64 0, i32 0, i32 8} ; [ DW_TAG_base_type ]
!267 = metadata !{i32 786478, i32 0, metadata !221, metadata !"ap_int_base", metadata !"ap_int_base", metadata !"", metadata !222, i32 1454, metadata !268, i1 false, i1 false, i32 0, i32 0, null, i32 384, i1 false, null, null, i32 0, metadata !101, i32 1454} ; [ DW_TAG_subprogram ]
!268 = metadata !{i32 786453, i32 0, metadata !"", i32 0, i32 0, i64 0, i64 0, i64 0, i32 0, null, metadata !269, i32 0, i32 0} ; [ DW_TAG_subroutine_type ]
!269 = metadata !{null, metadata !241, metadata !270}
!270 = metadata !{i32 786468, null, metadata !"short", null, i32 0, i64 16, i64 16, i64 0, i32 0, i32 5} ; [ DW_TAG_base_type ]
!271 = metadata !{i32 786478, i32 0, metadata !221, metadata !"ap_int_base", metadata !"ap_int_base", metadata !"", metadata !222, i32 1455, metadata !272, i1 false, i1 false, i32 0, i32 0, null, i32 384, i1 false, null, null, i32 0, metadata !101, i32 1455} ; [ DW_TAG_subprogram ]
!272 = metadata !{i32 786453, i32 0, metadata !"", i32 0, i32 0, i64 0, i64 0, i64 0, i32 0, null, metadata !273, i32 0, i32 0} ; [ DW_TAG_subroutine_type ]
!273 = metadata !{null, metadata !241, metadata !274}
!274 = metadata !{i32 786468, null, metadata !"unsigned short", null, i32 0, i64 16, i64 16, i64 0, i32 0, i32 7} ; [ DW_TAG_base_type ]
!275 = metadata !{i32 786478, i32 0, metadata !221, metadata !"ap_int_base", metadata !"ap_int_base", metadata !"", metadata !222, i32 1456, metadata !276, i1 false, i1 false, i32 0, i32 0, null, i32 384, i1 false, null, null, i32 0, metadata !101, i32 1456} ; [ DW_TAG_subprogram ]
!276 = metadata !{i32 786453, i32 0, metadata !"", i32 0, i32 0, i64 0, i64 0, i64 0, i32 0, null, metadata !277, i32 0, i32 0} ; [ DW_TAG_subroutine_type ]
!277 = metadata !{null, metadata !241, metadata !236}
!278 = metadata !{i32 786478, i32 0, metadata !221, metadata !"ap_int_base", metadata !"ap_int_base", metadata !"", metadata !222, i32 1457, metadata !279, i1 false, i1 false, i32 0, i32 0, null, i32 384, i1 false, null, null, i32 0, metadata !101, i32 1457} ; [ DW_TAG_subprogram ]
!279 = metadata !{i32 786453, i32 0, metadata !"", i32 0, i32 0, i64 0, i64 0, i64 0, i32 0, null, metadata !280, i32 0, i32 0} ; [ DW_TAG_subroutine_type ]
!280 = metadata !{null, metadata !241, metadata !281}
!281 = metadata !{i32 786468, null, metadata !"unsigned int", null, i32 0, i64 32, i64 32, i64 0, i32 0, i32 7} ; [ DW_TAG_base_type ]
!282 = metadata !{i32 786478, i32 0, metadata !221, metadata !"ap_int_base", metadata !"ap_int_base", metadata !"", metadata !222, i32 1458, metadata !283, i1 false, i1 false, i32 0, i32 0, null, i32 384, i1 false, null, null, i32 0, metadata !101, i32 1458} ; [ DW_TAG_subprogram ]
!283 = metadata !{i32 786453, i32 0, metadata !"", i32 0, i32 0, i64 0, i64 0, i64 0, i32 0, null, metadata !284, i32 0, i32 0} ; [ DW_TAG_subroutine_type ]
!284 = metadata !{null, metadata !241, metadata !285}
!285 = metadata !{i32 786468, null, metadata !"long int", null, i32 0, i64 32, i64 32, i64 0, i32 0, i32 5} ; [ DW_TAG_base_type ]
!286 = metadata !{i32 786478, i32 0, metadata !221, metadata !"ap_int_base", metadata !"ap_int_base", metadata !"", metadata !222, i32 1459, metadata !287, i1 false, i1 false, i32 0, i32 0, null, i32 384, i1 false, null, null, i32 0, metadata !101, i32 1459} ; [ DW_TAG_subprogram ]
!287 = metadata !{i32 786453, i32 0, metadata !"", i32 0, i32 0, i64 0, i64 0, i64 0, i32 0, null, metadata !288, i32 0, i32 0} ; [ DW_TAG_subroutine_type ]
!288 = metadata !{null, metadata !241, metadata !289}
!289 = metadata !{i32 786468, null, metadata !"long unsigned int", null, i32 0, i64 32, i64 32, i64 0, i32 0, i32 7} ; [ DW_TAG_base_type ]
!290 = metadata !{i32 786478, i32 0, metadata !221, metadata !"ap_int_base", metadata !"ap_int_base", metadata !"", metadata !222, i32 1460, metadata !291, i1 false, i1 false, i32 0, i32 0, null, i32 384, i1 false, null, null, i32 0, metadata !101, i32 1460} ; [ DW_TAG_subprogram ]
!291 = metadata !{i32 786453, i32 0, metadata !"", i32 0, i32 0, i64 0, i64 0, i64 0, i32 0, null, metadata !292, i32 0, i32 0} ; [ DW_TAG_subroutine_type ]
!292 = metadata !{null, metadata !241, metadata !293}
!293 = metadata !{i32 786454, null, metadata !"ap_slong", metadata !222, i32 112, i64 0, i64 0, i64 0, i32 0, metadata !294} ; [ DW_TAG_typedef ]
!294 = metadata !{i32 786468, null, metadata !"long long int", null, i32 0, i64 64, i64 64, i64 0, i32 0, i32 5} ; [ DW_TAG_base_type ]
!295 = metadata !{i32 786478, i32 0, metadata !221, metadata !"ap_int_base", metadata !"ap_int_base", metadata !"", metadata !222, i32 1461, metadata !296, i1 false, i1 false, i32 0, i32 0, null, i32 384, i1 false, null, null, i32 0, metadata !101, i32 1461} ; [ DW_TAG_subprogram ]
!296 = metadata !{i32 786453, i32 0, metadata !"", i32 0, i32 0, i64 0, i64 0, i64 0, i32 0, null, metadata !297, i32 0, i32 0} ; [ DW_TAG_subroutine_type ]
!297 = metadata !{null, metadata !241, metadata !298}
!298 = metadata !{i32 786454, null, metadata !"ap_ulong", metadata !222, i32 111, i64 0, i64 0, i64 0, i32 0, metadata !299} ; [ DW_TAG_typedef ]
!299 = metadata !{i32 786468, null, metadata !"long long unsigned int", null, i32 0, i64 64, i64 64, i64 0, i32 0, i32 7} ; [ DW_TAG_base_type ]
!300 = metadata !{i32 786478, i32 0, metadata !221, metadata !"ap_int_base", metadata !"ap_int_base", metadata !"", metadata !222, i32 1462, metadata !301, i1 false, i1 false, i32 0, i32 0, null, i32 384, i1 false, null, null, i32 0, metadata !101, i32 1462} ; [ DW_TAG_subprogram ]
!301 = metadata !{i32 786453, i32 0, metadata !"", i32 0, i32 0, i64 0, i64 0, i64 0, i32 0, null, metadata !302, i32 0, i32 0} ; [ DW_TAG_subroutine_type ]
!302 = metadata !{null, metadata !241, metadata !303}
!303 = metadata !{i32 786454, null, metadata !"half", metadata !222, i32 53, i64 0, i64 0, i64 0, i32 0, metadata !304} ; [ DW_TAG_typedef ]
!304 = metadata !{i32 786468, null, metadata !"half", null, i32 0, i64 16, i64 16, i64 0, i32 0, i32 4} ; [ DW_TAG_base_type ]
!305 = metadata !{i32 786478, i32 0, metadata !221, metadata !"ap_int_base", metadata !"ap_int_base", metadata !"", metadata !222, i32 1463, metadata !306, i1 false, i1 false, i32 0, i32 0, null, i32 384, i1 false, null, null, i32 0, metadata !101, i32 1463} ; [ DW_TAG_subprogram ]
!306 = metadata !{i32 786453, i32 0, metadata !"", i32 0, i32 0, i64 0, i64 0, i64 0, i32 0, null, metadata !307, i32 0, i32 0} ; [ DW_TAG_subroutine_type ]
!307 = metadata !{null, metadata !241, metadata !308}
!308 = metadata !{i32 786468, null, metadata !"float", null, i32 0, i64 32, i64 32, i64 0, i32 0, i32 4} ; [ DW_TAG_base_type ]
!309 = metadata !{i32 786478, i32 0, metadata !221, metadata !"ap_int_base", metadata !"ap_int_base", metadata !"", metadata !222, i32 1464, metadata !310, i1 false, i1 false, i32 0, i32 0, null, i32 384, i1 false, null, null, i32 0, metadata !101, i32 1464} ; [ DW_TAG_subprogram ]
!310 = metadata !{i32 786453, i32 0, metadata !"", i32 0, i32 0, i64 0, i64 0, i64 0, i32 0, null, metadata !311, i32 0, i32 0} ; [ DW_TAG_subroutine_type ]
!311 = metadata !{null, metadata !241, metadata !312}
!312 = metadata !{i32 786468, null, metadata !"double", null, i32 0, i64 64, i64 64, i64 0, i32 0, i32 4} ; [ DW_TAG_base_type ]
!313 = metadata !{i32 786478, i32 0, metadata !221, metadata !"ap_int_base", metadata !"ap_int_base", metadata !"", metadata !222, i32 1491, metadata !314, i1 false, i1 false, i32 0, i32 0, null, i32 256, i1 false, null, null, i32 0, metadata !101, i32 1491} ; [ DW_TAG_subprogram ]
!314 = metadata !{i32 786453, i32 0, metadata !"", i32 0, i32 0, i64 0, i64 0, i64 0, i32 0, null, metadata !315, i32 0, i32 0} ; [ DW_TAG_subroutine_type ]
!315 = metadata !{null, metadata !241, metadata !144}
!316 = metadata !{i32 786478, i32 0, metadata !221, metadata !"ap_int_base", metadata !"ap_int_base", metadata !"", metadata !222, i32 1498, metadata !317, i1 false, i1 false, i32 0, i32 0, null, i32 256, i1 false, null, null, i32 0, metadata !101, i32 1498} ; [ DW_TAG_subprogram ]
!317 = metadata !{i32 786453, i32 0, metadata !"", i32 0, i32 0, i64 0, i64 0, i64 0, i32 0, null, metadata !318, i32 0, i32 0} ; [ DW_TAG_subroutine_type ]
!318 = metadata !{null, metadata !241, metadata !144, metadata !262}
!319 = metadata !{i32 786478, i32 0, metadata !221, metadata !"read", metadata !"read", metadata !"_ZNV11ap_int_baseILi4ELb0ELb1EE4readEv", metadata !222, i32 1519, metadata !320, i1 false, i1 false, i32 0, i32 0, null, i32 256, i1 false, null, null, i32 0, metadata !101, i32 1519} ; [ DW_TAG_subprogram ]
!320 = metadata !{i32 786453, i32 0, metadata !"", i32 0, i32 0, i64 0, i64 0, i64 0, i32 0, null, metadata !321, i32 0, i32 0} ; [ DW_TAG_subroutine_type ]
!321 = metadata !{metadata !221, metadata !322}
!322 = metadata !{i32 786447, i32 0, metadata !"", i32 0, i32 0, i64 32, i64 32, i64 0, i32 64, metadata !255} ; [ DW_TAG_pointer_type ]
!323 = metadata !{i32 786478, i32 0, metadata !221, metadata !"write", metadata !"write", metadata !"_ZNV11ap_int_baseILi4ELb0ELb1EE5writeERKS0_", metadata !222, i32 1525, metadata !324, i1 false, i1 false, i32 0, i32 0, null, i32 256, i1 false, null, null, i32 0, metadata !101, i32 1525} ; [ DW_TAG_subprogram ]
!324 = metadata !{i32 786453, i32 0, metadata !"", i32 0, i32 0, i64 0, i64 0, i64 0, i32 0, null, metadata !325, i32 0, i32 0} ; [ DW_TAG_subroutine_type ]
!325 = metadata !{null, metadata !322, metadata !245}
!326 = metadata !{i32 786478, i32 0, metadata !221, metadata !"operator=", metadata !"operator=", metadata !"_ZNV11ap_int_baseILi4ELb0ELb1EEaSERVKS0_", metadata !222, i32 1537, metadata !327, i1 false, i1 false, i32 0, i32 0, null, i32 256, i1 false, null, null, i32 0, metadata !101, i32 1537} ; [ DW_TAG_subprogram ]
!327 = metadata !{i32 786453, i32 0, metadata !"", i32 0, i32 0, i64 0, i64 0, i64 0, i32 0, null, metadata !328, i32 0, i32 0} ; [ DW_TAG_subroutine_type ]
!328 = metadata !{null, metadata !322, metadata !253}
!329 = metadata !{i32 786478, i32 0, metadata !221, metadata !"operator=", metadata !"operator=", metadata !"_ZNV11ap_int_baseILi4ELb0ELb1EEaSERKS0_", metadata !222, i32 1546, metadata !324, i1 false, i1 false, i32 0, i32 0, null, i32 256, i1 false, null, null, i32 0, metadata !101, i32 1546} ; [ DW_TAG_subprogram ]
!330 = metadata !{i32 786478, i32 0, metadata !221, metadata !"operator=", metadata !"operator=", metadata !"_ZN11ap_int_baseILi4ELb0ELb1EEaSERVKS0_", metadata !222, i32 1579, metadata !331, i1 false, i1 false, i32 0, i32 0, null, i32 256, i1 false, null, null, i32 0, metadata !101, i32 1579} ; [ DW_TAG_subprogram ]
!331 = metadata !{i32 786453, i32 0, metadata !"", i32 0, i32 0, i64 0, i64 0, i64 0, i32 0, null, metadata !332, i32 0, i32 0} ; [ DW_TAG_subroutine_type ]
!332 = metadata !{metadata !333, metadata !241, metadata !253}
!333 = metadata !{i32 786448, null, null, null, i32 0, i64 0, i64 0, i64 0, i32 0, metadata !221} ; [ DW_TAG_reference_type ]
!334 = metadata !{i32 786478, i32 0, metadata !221, metadata !"operator=", metadata !"operator=", metadata !"_ZN11ap_int_baseILi4ELb0ELb1EEaSERKS0_", metadata !222, i32 1584, metadata !335, i1 false, i1 false, i32 0, i32 0, null, i32 256, i1 false, null, null, i32 0, metadata !101, i32 1584} ; [ DW_TAG_subprogram ]
!335 = metadata !{i32 786453, i32 0, metadata !"", i32 0, i32 0, i64 0, i64 0, i64 0, i32 0, null, metadata !336, i32 0, i32 0} ; [ DW_TAG_subroutine_type ]
!336 = metadata !{metadata !333, metadata !241, metadata !245}
!337 = metadata !{i32 786478, i32 0, metadata !221, metadata !"operator=", metadata !"operator=", metadata !"_ZN11ap_int_baseILi4ELb0ELb1EEaSEPKc", metadata !222, i32 1588, metadata !338, i1 false, i1 false, i32 0, i32 0, null, i32 256, i1 false, null, null, i32 0, metadata !101, i32 1588} ; [ DW_TAG_subprogram ]
!338 = metadata !{i32 786453, i32 0, metadata !"", i32 0, i32 0, i64 0, i64 0, i64 0, i32 0, null, metadata !339, i32 0, i32 0} ; [ DW_TAG_subroutine_type ]
!339 = metadata !{metadata !333, metadata !241, metadata !144}
!340 = metadata !{i32 786478, i32 0, metadata !221, metadata !"set", metadata !"set", metadata !"_ZN11ap_int_baseILi4ELb0ELb1EE3setEPKca", metadata !222, i32 1596, metadata !341, i1 false, i1 false, i32 0, i32 0, null, i32 256, i1 false, null, null, i32 0, metadata !101, i32 1596} ; [ DW_TAG_subprogram ]
!341 = metadata !{i32 786453, i32 0, metadata !"", i32 0, i32 0, i64 0, i64 0, i64 0, i32 0, null, metadata !342, i32 0, i32 0} ; [ DW_TAG_subroutine_type ]
!342 = metadata !{metadata !333, metadata !241, metadata !144, metadata !262}
!343 = metadata !{i32 786478, i32 0, metadata !221, metadata !"operator=", metadata !"operator=", metadata !"_ZN11ap_int_baseILi4ELb0ELb1EEaSEa", metadata !222, i32 1610, metadata !344, i1 false, i1 false, i32 0, i32 0, null, i32 256, i1 false, null, null, i32 0, metadata !101, i32 1610} ; [ DW_TAG_subprogram ]
!344 = metadata !{i32 786453, i32 0, metadata !"", i32 0, i32 0, i64 0, i64 0, i64 0, i32 0, null, metadata !345, i32 0, i32 0} ; [ DW_TAG_subroutine_type ]
!345 = metadata !{metadata !333, metadata !241, metadata !262}
!346 = metadata !{i32 786478, i32 0, metadata !221, metadata !"operator=", metadata !"operator=", metadata !"_ZN11ap_int_baseILi4ELb0ELb1EEaSEh", metadata !222, i32 1611, metadata !347, i1 false, i1 false, i32 0, i32 0, null, i32 256, i1 false, null, null, i32 0, metadata !101, i32 1611} ; [ DW_TAG_subprogram ]
!347 = metadata !{i32 786453, i32 0, metadata !"", i32 0, i32 0, i64 0, i64 0, i64 0, i32 0, null, metadata !348, i32 0, i32 0} ; [ DW_TAG_subroutine_type ]
!348 = metadata !{metadata !333, metadata !241, metadata !266}
!349 = metadata !{i32 786478, i32 0, metadata !221, metadata !"operator=", metadata !"operator=", metadata !"_ZN11ap_int_baseILi4ELb0ELb1EEaSEs", metadata !222, i32 1612, metadata !350, i1 false, i1 false, i32 0, i32 0, null, i32 256, i1 false, null, null, i32 0, metadata !101, i32 1612} ; [ DW_TAG_subprogram ]
!350 = metadata !{i32 786453, i32 0, metadata !"", i32 0, i32 0, i64 0, i64 0, i64 0, i32 0, null, metadata !351, i32 0, i32 0} ; [ DW_TAG_subroutine_type ]
!351 = metadata !{metadata !333, metadata !241, metadata !270}
!352 = metadata !{i32 786478, i32 0, metadata !221, metadata !"operator=", metadata !"operator=", metadata !"_ZN11ap_int_baseILi4ELb0ELb1EEaSEt", metadata !222, i32 1613, metadata !353, i1 false, i1 false, i32 0, i32 0, null, i32 256, i1 false, null, null, i32 0, metadata !101, i32 1613} ; [ DW_TAG_subprogram ]
!353 = metadata !{i32 786453, i32 0, metadata !"", i32 0, i32 0, i64 0, i64 0, i64 0, i32 0, null, metadata !354, i32 0, i32 0} ; [ DW_TAG_subroutine_type ]
!354 = metadata !{metadata !333, metadata !241, metadata !274}
!355 = metadata !{i32 786478, i32 0, metadata !221, metadata !"operator=", metadata !"operator=", metadata !"_ZN11ap_int_baseILi4ELb0ELb1EEaSEi", metadata !222, i32 1614, metadata !356, i1 false, i1 false, i32 0, i32 0, null, i32 256, i1 false, null, null, i32 0, metadata !101, i32 1614} ; [ DW_TAG_subprogram ]
!356 = metadata !{i32 786453, i32 0, metadata !"", i32 0, i32 0, i64 0, i64 0, i64 0, i32 0, null, metadata !357, i32 0, i32 0} ; [ DW_TAG_subroutine_type ]
!357 = metadata !{metadata !333, metadata !241, metadata !236}
!358 = metadata !{i32 786478, i32 0, metadata !221, metadata !"operator=", metadata !"operator=", metadata !"_ZN11ap_int_baseILi4ELb0ELb1EEaSEj", metadata !222, i32 1615, metadata !359, i1 false, i1 false, i32 0, i32 0, null, i32 256, i1 false, null, null, i32 0, metadata !101, i32 1615} ; [ DW_TAG_subprogram ]
!359 = metadata !{i32 786453, i32 0, metadata !"", i32 0, i32 0, i64 0, i64 0, i64 0, i32 0, null, metadata !360, i32 0, i32 0} ; [ DW_TAG_subroutine_type ]
!360 = metadata !{metadata !333, metadata !241, metadata !281}
!361 = metadata !{i32 786478, i32 0, metadata !221, metadata !"operator=", metadata !"operator=", metadata !"_ZN11ap_int_baseILi4ELb0ELb1EEaSEx", metadata !222, i32 1616, metadata !362, i1 false, i1 false, i32 0, i32 0, null, i32 256, i1 false, null, null, i32 0, metadata !101, i32 1616} ; [ DW_TAG_subprogram ]
!362 = metadata !{i32 786453, i32 0, metadata !"", i32 0, i32 0, i64 0, i64 0, i64 0, i32 0, null, metadata !363, i32 0, i32 0} ; [ DW_TAG_subroutine_type ]
!363 = metadata !{metadata !333, metadata !241, metadata !293}
!364 = metadata !{i32 786478, i32 0, metadata !221, metadata !"operator=", metadata !"operator=", metadata !"_ZN11ap_int_baseILi4ELb0ELb1EEaSEy", metadata !222, i32 1617, metadata !365, i1 false, i1 false, i32 0, i32 0, null, i32 256, i1 false, null, null, i32 0, metadata !101, i32 1617} ; [ DW_TAG_subprogram ]
!365 = metadata !{i32 786453, i32 0, metadata !"", i32 0, i32 0, i64 0, i64 0, i64 0, i32 0, null, metadata !366, i32 0, i32 0} ; [ DW_TAG_subroutine_type ]
!366 = metadata !{metadata !333, metadata !241, metadata !298}
!367 = metadata !{i32 786478, i32 0, metadata !221, metadata !"operator unsigned char", metadata !"operator unsigned char", metadata !"_ZNK11ap_int_baseILi4ELb0ELb1EEcvhEv", metadata !222, i32 1655, metadata !368, i1 false, i1 false, i32 0, i32 0, null, i32 256, i1 false, null, null, i32 0, metadata !101, i32 1655} ; [ DW_TAG_subprogram ]
!368 = metadata !{i32 786453, i32 0, metadata !"", i32 0, i32 0, i64 0, i64 0, i64 0, i32 0, null, metadata !369, i32 0, i32 0} ; [ DW_TAG_subroutine_type ]
!369 = metadata !{metadata !370, metadata !375}
!370 = metadata !{i32 786454, metadata !221, metadata !"RetType", metadata !222, i32 1393, i64 0, i64 0, i64 0, i32 0, metadata !371} ; [ DW_TAG_typedef ]
!371 = metadata !{i32 786454, metadata !372, metadata !"Type", metadata !222, i32 1365, i64 0, i64 0, i64 0, i32 0, metadata !266} ; [ DW_TAG_typedef ]
!372 = metadata !{i32 786434, null, metadata !"retval<1, false>", metadata !222, i32 1364, i64 8, i64 8, i32 0, i32 0, null, metadata !157, i32 0, null, metadata !373} ; [ DW_TAG_class_type ]
!373 = metadata !{metadata !374, metadata !237}
!374 = metadata !{i32 786480, null, metadata !"_AP_N", metadata !236, i64 1, null, i32 0, i32 0} ; [ DW_TAG_template_value_parameter ]
!375 = metadata !{i32 786447, i32 0, metadata !"", i32 0, i32 0, i64 32, i64 32, i64 0, i32 64, metadata !246} ; [ DW_TAG_pointer_type ]
!376 = metadata !{i32 786478, i32 0, metadata !221, metadata !"to_bool", metadata !"to_bool", metadata !"_ZNK11ap_int_baseILi4ELb0ELb1EE7to_boolEv", metadata !222, i32 1661, metadata !377, i1 false, i1 false, i32 0, i32 0, null, i32 256, i1 false, null, null, i32 0, metadata !101, i32 1661} ; [ DW_TAG_subprogram ]
!377 = metadata !{i32 786453, i32 0, metadata !"", i32 0, i32 0, i64 0, i64 0, i64 0, i32 0, null, metadata !378, i32 0, i32 0} ; [ DW_TAG_subroutine_type ]
!378 = metadata !{metadata !115, metadata !375}
!379 = metadata !{i32 786478, i32 0, metadata !221, metadata !"to_uchar", metadata !"to_uchar", metadata !"_ZNK11ap_int_baseILi4ELb0ELb1EE8to_ucharEv", metadata !222, i32 1662, metadata !380, i1 false, i1 false, i32 0, i32 0, null, i32 256, i1 false, null, null, i32 0, metadata !101, i32 1662} ; [ DW_TAG_subprogram ]
!380 = metadata !{i32 786453, i32 0, metadata !"", i32 0, i32 0, i64 0, i64 0, i64 0, i32 0, null, metadata !381, i32 0, i32 0} ; [ DW_TAG_subroutine_type ]
!381 = metadata !{metadata !266, metadata !375}
!382 = metadata !{i32 786478, i32 0, metadata !221, metadata !"to_char", metadata !"to_char", metadata !"_ZNK11ap_int_baseILi4ELb0ELb1EE7to_charEv", metadata !222, i32 1663, metadata !383, i1 false, i1 false, i32 0, i32 0, null, i32 256, i1 false, null, null, i32 0, metadata !101, i32 1663} ; [ DW_TAG_subprogram ]
!383 = metadata !{i32 786453, i32 0, metadata !"", i32 0, i32 0, i64 0, i64 0, i64 0, i32 0, null, metadata !384, i32 0, i32 0} ; [ DW_TAG_subroutine_type ]
!384 = metadata !{metadata !262, metadata !375}
!385 = metadata !{i32 786478, i32 0, metadata !221, metadata !"to_ushort", metadata !"to_ushort", metadata !"_ZNK11ap_int_baseILi4ELb0ELb1EE9to_ushortEv", metadata !222, i32 1664, metadata !386, i1 false, i1 false, i32 0, i32 0, null, i32 256, i1 false, null, null, i32 0, metadata !101, i32 1664} ; [ DW_TAG_subprogram ]
!386 = metadata !{i32 786453, i32 0, metadata !"", i32 0, i32 0, i64 0, i64 0, i64 0, i32 0, null, metadata !387, i32 0, i32 0} ; [ DW_TAG_subroutine_type ]
!387 = metadata !{metadata !274, metadata !375}
!388 = metadata !{i32 786478, i32 0, metadata !221, metadata !"to_short", metadata !"to_short", metadata !"_ZNK11ap_int_baseILi4ELb0ELb1EE8to_shortEv", metadata !222, i32 1665, metadata !389, i1 false, i1 false, i32 0, i32 0, null, i32 256, i1 false, null, null, i32 0, metadata !101, i32 1665} ; [ DW_TAG_subprogram ]
!389 = metadata !{i32 786453, i32 0, metadata !"", i32 0, i32 0, i64 0, i64 0, i64 0, i32 0, null, metadata !390, i32 0, i32 0} ; [ DW_TAG_subroutine_type ]
!390 = metadata !{metadata !270, metadata !375}
!391 = metadata !{i32 786478, i32 0, metadata !221, metadata !"to_int", metadata !"to_int", metadata !"_ZNK11ap_int_baseILi4ELb0ELb1EE6to_intEv", metadata !222, i32 1666, metadata !392, i1 false, i1 false, i32 0, i32 0, null, i32 256, i1 false, null, null, i32 0, metadata !101, i32 1666} ; [ DW_TAG_subprogram ]
!392 = metadata !{i32 786453, i32 0, metadata !"", i32 0, i32 0, i64 0, i64 0, i64 0, i32 0, null, metadata !393, i32 0, i32 0} ; [ DW_TAG_subroutine_type ]
!393 = metadata !{metadata !236, metadata !375}
!394 = metadata !{i32 786478, i32 0, metadata !221, metadata !"to_uint", metadata !"to_uint", metadata !"_ZNK11ap_int_baseILi4ELb0ELb1EE7to_uintEv", metadata !222, i32 1667, metadata !395, i1 false, i1 false, i32 0, i32 0, null, i32 256, i1 false, null, null, i32 0, metadata !101, i32 1667} ; [ DW_TAG_subprogram ]
!395 = metadata !{i32 786453, i32 0, metadata !"", i32 0, i32 0, i64 0, i64 0, i64 0, i32 0, null, metadata !396, i32 0, i32 0} ; [ DW_TAG_subroutine_type ]
!396 = metadata !{metadata !281, metadata !375}
!397 = metadata !{i32 786478, i32 0, metadata !221, metadata !"to_long", metadata !"to_long", metadata !"_ZNK11ap_int_baseILi4ELb0ELb1EE7to_longEv", metadata !222, i32 1668, metadata !398, i1 false, i1 false, i32 0, i32 0, null, i32 256, i1 false, null, null, i32 0, metadata !101, i32 1668} ; [ DW_TAG_subprogram ]
!398 = metadata !{i32 786453, i32 0, metadata !"", i32 0, i32 0, i64 0, i64 0, i64 0, i32 0, null, metadata !399, i32 0, i32 0} ; [ DW_TAG_subroutine_type ]
!399 = metadata !{metadata !285, metadata !375}
!400 = metadata !{i32 786478, i32 0, metadata !221, metadata !"to_ulong", metadata !"to_ulong", metadata !"_ZNK11ap_int_baseILi4ELb0ELb1EE8to_ulongEv", metadata !222, i32 1669, metadata !401, i1 false, i1 false, i32 0, i32 0, null, i32 256, i1 false, null, null, i32 0, metadata !101, i32 1669} ; [ DW_TAG_subprogram ]
!401 = metadata !{i32 786453, i32 0, metadata !"", i32 0, i32 0, i64 0, i64 0, i64 0, i32 0, null, metadata !402, i32 0, i32 0} ; [ DW_TAG_subroutine_type ]
!402 = metadata !{metadata !289, metadata !375}
!403 = metadata !{i32 786478, i32 0, metadata !221, metadata !"to_int64", metadata !"to_int64", metadata !"_ZNK11ap_int_baseILi4ELb0ELb1EE8to_int64Ev", metadata !222, i32 1670, metadata !404, i1 false, i1 false, i32 0, i32 0, null, i32 256, i1 false, null, null, i32 0, metadata !101, i32 1670} ; [ DW_TAG_subprogram ]
!404 = metadata !{i32 786453, i32 0, metadata !"", i32 0, i32 0, i64 0, i64 0, i64 0, i32 0, null, metadata !405, i32 0, i32 0} ; [ DW_TAG_subroutine_type ]
!405 = metadata !{metadata !293, metadata !375}
!406 = metadata !{i32 786478, i32 0, metadata !221, metadata !"to_uint64", metadata !"to_uint64", metadata !"_ZNK11ap_int_baseILi4ELb0ELb1EE9to_uint64Ev", metadata !222, i32 1671, metadata !407, i1 false, i1 false, i32 0, i32 0, null, i32 256, i1 false, null, null, i32 0, metadata !101, i32 1671} ; [ DW_TAG_subprogram ]
!407 = metadata !{i32 786453, i32 0, metadata !"", i32 0, i32 0, i64 0, i64 0, i64 0, i32 0, null, metadata !408, i32 0, i32 0} ; [ DW_TAG_subroutine_type ]
!408 = metadata !{metadata !298, metadata !375}
!409 = metadata !{i32 786478, i32 0, metadata !221, metadata !"to_double", metadata !"to_double", metadata !"_ZNK11ap_int_baseILi4ELb0ELb1EE9to_doubleEv", metadata !222, i32 1672, metadata !410, i1 false, i1 false, i32 0, i32 0, null, i32 256, i1 false, null, null, i32 0, metadata !101, i32 1672} ; [ DW_TAG_subprogram ]
!410 = metadata !{i32 786453, i32 0, metadata !"", i32 0, i32 0, i64 0, i64 0, i64 0, i32 0, null, metadata !411, i32 0, i32 0} ; [ DW_TAG_subroutine_type ]
!411 = metadata !{metadata !312, metadata !375}
!412 = metadata !{i32 786478, i32 0, metadata !221, metadata !"length", metadata !"length", metadata !"_ZNK11ap_int_baseILi4ELb0ELb1EE6lengthEv", metadata !222, i32 1686, metadata !392, i1 false, i1 false, i32 0, i32 0, null, i32 256, i1 false, null, null, i32 0, metadata !101, i32 1686} ; [ DW_TAG_subprogram ]
!413 = metadata !{i32 786478, i32 0, metadata !221, metadata !"length", metadata !"length", metadata !"_ZNVK11ap_int_baseILi4ELb0ELb1EE6lengthEv", metadata !222, i32 1687, metadata !414, i1 false, i1 false, i32 0, i32 0, null, i32 256, i1 false, null, null, i32 0, metadata !101, i32 1687} ; [ DW_TAG_subprogram ]
!414 = metadata !{i32 786453, i32 0, metadata !"", i32 0, i32 0, i64 0, i64 0, i64 0, i32 0, null, metadata !415, i32 0, i32 0} ; [ DW_TAG_subroutine_type ]
!415 = metadata !{metadata !236, metadata !416}
!416 = metadata !{i32 786447, i32 0, metadata !"", i32 0, i32 0, i64 32, i64 32, i64 0, i32 64, metadata !254} ; [ DW_TAG_pointer_type ]
!417 = metadata !{i32 786478, i32 0, metadata !221, metadata !"reverse", metadata !"reverse", metadata !"_ZN11ap_int_baseILi4ELb0ELb1EE7reverseEv", metadata !222, i32 1692, metadata !418, i1 false, i1 false, i32 0, i32 0, null, i32 256, i1 false, null, null, i32 0, metadata !101, i32 1692} ; [ DW_TAG_subprogram ]
!418 = metadata !{i32 786453, i32 0, metadata !"", i32 0, i32 0, i64 0, i64 0, i64 0, i32 0, null, metadata !419, i32 0, i32 0} ; [ DW_TAG_subroutine_type ]
!419 = metadata !{metadata !333, metadata !241}
!420 = metadata !{i32 786478, i32 0, metadata !221, metadata !"iszero", metadata !"iszero", metadata !"_ZNK11ap_int_baseILi4ELb0ELb1EE6iszeroEv", metadata !222, i32 1698, metadata !377, i1 false, i1 false, i32 0, i32 0, null, i32 256, i1 false, null, null, i32 0, metadata !101, i32 1698} ; [ DW_TAG_subprogram ]
!421 = metadata !{i32 786478, i32 0, metadata !221, metadata !"is_zero", metadata !"is_zero", metadata !"_ZNK11ap_int_baseILi4ELb0ELb1EE7is_zeroEv", metadata !222, i32 1703, metadata !377, i1 false, i1 false, i32 0, i32 0, null, i32 256, i1 false, null, null, i32 0, metadata !101, i32 1703} ; [ DW_TAG_subprogram ]
!422 = metadata !{i32 786478, i32 0, metadata !221, metadata !"sign", metadata !"sign", metadata !"_ZNK11ap_int_baseILi4ELb0ELb1EE4signEv", metadata !222, i32 1708, metadata !377, i1 false, i1 false, i32 0, i32 0, null, i32 256, i1 false, null, null, i32 0, metadata !101, i32 1708} ; [ DW_TAG_subprogram ]
!423 = metadata !{i32 786478, i32 0, metadata !221, metadata !"clear", metadata !"clear", metadata !"_ZN11ap_int_baseILi4ELb0ELb1EE5clearEi", metadata !222, i32 1716, metadata !276, i1 false, i1 false, i32 0, i32 0, null, i32 256, i1 false, null, null, i32 0, metadata !101, i32 1716} ; [ DW_TAG_subprogram ]
!424 = metadata !{i32 786478, i32 0, metadata !221, metadata !"invert", metadata !"invert", metadata !"_ZN11ap_int_baseILi4ELb0ELb1EE6invertEi", metadata !222, i32 1722, metadata !276, i1 false, i1 false, i32 0, i32 0, null, i32 256, i1 false, null, null, i32 0, metadata !101, i32 1722} ; [ DW_TAG_subprogram ]
!425 = metadata !{i32 786478, i32 0, metadata !221, metadata !"test", metadata !"test", metadata !"_ZNK11ap_int_baseILi4ELb0ELb1EE4testEi", metadata !222, i32 1730, metadata !426, i1 false, i1 false, i32 0, i32 0, null, i32 256, i1 false, null, null, i32 0, metadata !101, i32 1730} ; [ DW_TAG_subprogram ]
!426 = metadata !{i32 786453, i32 0, metadata !"", i32 0, i32 0, i64 0, i64 0, i64 0, i32 0, null, metadata !427, i32 0, i32 0} ; [ DW_TAG_subroutine_type ]
!427 = metadata !{metadata !115, metadata !375, metadata !236}
!428 = metadata !{i32 786478, i32 0, metadata !221, metadata !"set", metadata !"set", metadata !"_ZN11ap_int_baseILi4ELb0ELb1EE3setEi", metadata !222, i32 1736, metadata !276, i1 false, i1 false, i32 0, i32 0, null, i32 256, i1 false, null, null, i32 0, metadata !101, i32 1736} ; [ DW_TAG_subprogram ]
!429 = metadata !{i32 786478, i32 0, metadata !221, metadata !"set", metadata !"set", metadata !"_ZN11ap_int_baseILi4ELb0ELb1EE3setEib", metadata !222, i32 1742, metadata !430, i1 false, i1 false, i32 0, i32 0, null, i32 256, i1 false, null, null, i32 0, metadata !101, i32 1742} ; [ DW_TAG_subprogram ]
!430 = metadata !{i32 786453, i32 0, metadata !"", i32 0, i32 0, i64 0, i64 0, i64 0, i32 0, null, metadata !431, i32 0, i32 0} ; [ DW_TAG_subroutine_type ]
!431 = metadata !{null, metadata !241, metadata !236, metadata !115}
!432 = metadata !{i32 786478, i32 0, metadata !221, metadata !"lrotate", metadata !"lrotate", metadata !"_ZN11ap_int_baseILi4ELb0ELb1EE7lrotateEi", metadata !222, i32 1749, metadata !276, i1 false, i1 false, i32 0, i32 0, null, i32 256, i1 false, null, null, i32 0, metadata !101, i32 1749} ; [ DW_TAG_subprogram ]
!433 = metadata !{i32 786478, i32 0, metadata !221, metadata !"rrotate", metadata !"rrotate", metadata !"_ZN11ap_int_baseILi4ELb0ELb1EE7rrotateEi", metadata !222, i32 1758, metadata !276, i1 false, i1 false, i32 0, i32 0, null, i32 256, i1 false, null, null, i32 0, metadata !101, i32 1758} ; [ DW_TAG_subprogram ]
!434 = metadata !{i32 786478, i32 0, metadata !221, metadata !"set_bit", metadata !"set_bit", metadata !"_ZN11ap_int_baseILi4ELb0ELb1EE7set_bitEib", metadata !222, i32 1766, metadata !430, i1 false, i1 false, i32 0, i32 0, null, i32 256, i1 false, null, null, i32 0, metadata !101, i32 1766} ; [ DW_TAG_subprogram ]
!435 = metadata !{i32 786478, i32 0, metadata !221, metadata !"get_bit", metadata !"get_bit", metadata !"_ZNK11ap_int_baseILi4ELb0ELb1EE7get_bitEi", metadata !222, i32 1771, metadata !426, i1 false, i1 false, i32 0, i32 0, null, i32 256, i1 false, null, null, i32 0, metadata !101, i32 1771} ; [ DW_TAG_subprogram ]
!436 = metadata !{i32 786478, i32 0, metadata !221, metadata !"b_not", metadata !"b_not", metadata !"_ZN11ap_int_baseILi4ELb0ELb1EE5b_notEv", metadata !222, i32 1776, metadata !239, i1 false, i1 false, i32 0, i32 0, null, i32 256, i1 false, null, null, i32 0, metadata !101, i32 1776} ; [ DW_TAG_subprogram ]
!437 = metadata !{i32 786478, i32 0, metadata !221, metadata !"countLeadingZeros", metadata !"countLeadingZeros", metadata !"_ZN11ap_int_baseILi4ELb0ELb1EE17countLeadingZerosEv", metadata !222, i32 1783, metadata !438, i1 false, i1 false, i32 0, i32 0, null, i32 256, i1 false, null, null, i32 0, metadata !101, i32 1783} ; [ DW_TAG_subprogram ]
!438 = metadata !{i32 786453, i32 0, metadata !"", i32 0, i32 0, i64 0, i64 0, i64 0, i32 0, null, metadata !439, i32 0, i32 0} ; [ DW_TAG_subroutine_type ]
!439 = metadata !{metadata !236, metadata !241}
!440 = metadata !{i32 786478, i32 0, metadata !221, metadata !"operator++", metadata !"operator++", metadata !"_ZN11ap_int_baseILi4ELb0ELb1EEppEv", metadata !222, i32 1840, metadata !418, i1 false, i1 false, i32 0, i32 0, null, i32 256, i1 false, null, null, i32 0, metadata !101, i32 1840} ; [ DW_TAG_subprogram ]
!441 = metadata !{i32 786478, i32 0, metadata !221, metadata !"operator--", metadata !"operator--", metadata !"_ZN11ap_int_baseILi4ELb0ELb1EEmmEv", metadata !222, i32 1844, metadata !418, i1 false, i1 false, i32 0, i32 0, null, i32 256, i1 false, null, null, i32 0, metadata !101, i32 1844} ; [ DW_TAG_subprogram ]
!442 = metadata !{i32 786478, i32 0, metadata !221, metadata !"operator++", metadata !"operator++", metadata !"_ZN11ap_int_baseILi4ELb0ELb1EEppEi", metadata !222, i32 1852, metadata !443, i1 false, i1 false, i32 0, i32 0, null, i32 256, i1 false, null, null, i32 0, metadata !101, i32 1852} ; [ DW_TAG_subprogram ]
!443 = metadata !{i32 786453, i32 0, metadata !"", i32 0, i32 0, i64 0, i64 0, i64 0, i32 0, null, metadata !444, i32 0, i32 0} ; [ DW_TAG_subroutine_type ]
!444 = metadata !{metadata !246, metadata !241, metadata !236}
!445 = metadata !{i32 786478, i32 0, metadata !221, metadata !"operator--", metadata !"operator--", metadata !"_ZN11ap_int_baseILi4ELb0ELb1EEmmEi", metadata !222, i32 1857, metadata !443, i1 false, i1 false, i32 0, i32 0, null, i32 256, i1 false, null, null, i32 0, metadata !101, i32 1857} ; [ DW_TAG_subprogram ]
!446 = metadata !{i32 786478, i32 0, metadata !221, metadata !"operator+", metadata !"operator+", metadata !"_ZNK11ap_int_baseILi4ELb0ELb1EEpsEv", metadata !222, i32 1866, metadata !447, i1 false, i1 false, i32 0, i32 0, null, i32 256, i1 false, null, null, i32 0, metadata !101, i32 1866} ; [ DW_TAG_subprogram ]
!447 = metadata !{i32 786453, i32 0, metadata !"", i32 0, i32 0, i64 0, i64 0, i64 0, i32 0, null, metadata !448, i32 0, i32 0} ; [ DW_TAG_subroutine_type ]
!448 = metadata !{metadata !221, metadata !375}
!449 = metadata !{i32 786478, i32 0, metadata !221, metadata !"operator!", metadata !"operator!", metadata !"_ZNK11ap_int_baseILi4ELb0ELb1EEntEv", metadata !222, i32 1872, metadata !377, i1 false, i1 false, i32 0, i32 0, null, i32 256, i1 false, null, null, i32 0, metadata !101, i32 1872} ; [ DW_TAG_subprogram ]
!450 = metadata !{i32 786478, i32 0, metadata !221, metadata !"operator-", metadata !"operator-", metadata !"_ZNK11ap_int_baseILi4ELb0ELb1EEngEv", metadata !222, i32 1877, metadata !451, i1 false, i1 false, i32 0, i32 0, null, i32 256, i1 false, null, null, i32 0, metadata !101, i32 1877} ; [ DW_TAG_subprogram ]
!451 = metadata !{i32 786453, i32 0, metadata !"", i32 0, i32 0, i64 0, i64 0, i64 0, i32 0, null, metadata !452, i32 0, i32 0} ; [ DW_TAG_subroutine_type ]
!452 = metadata !{metadata !453, metadata !375}
!453 = metadata !{i32 786434, null, metadata !"ap_int_base<5, true, true>", metadata !222, i32 1388, i64 8, i64 8, i32 0, i32 0, null, metadata !454, i32 0, null, metadata !704} ; [ DW_TAG_class_type ]
!454 = metadata !{metadata !455, metadata !467, metadata !471, metadata !474, metadata !477, metadata !480, metadata !483, metadata !486, metadata !489, metadata !492, metadata !495, metadata !498, metadata !501, metadata !504, metadata !507, metadata !510, metadata !513, metadata !516, metadata !519, metadata !524, metadata !529, metadata !534, metadata !535, metadata !539, metadata !542, metadata !545, metadata !548, metadata !551, metadata !554, metadata !557, metadata !560, metadata !563, metadata !566, metadata !569, metadata !572, metadata !580, metadata !583, metadata !586, metadata !589, metadata !592, metadata !595, metadata !598, metadata !601, metadata !604, metadata !607, metadata !610, metadata !613, metadata !616, metadata !617, metadata !621, metadata !624, metadata !625, metadata !626, metadata !627, metadata !628, metadata !629, metadata !632, metadata !633, metadata !636, metadata !637, metadata !638, metadata !639, metadata !640, metadata !641, metadata !644, metadata !645, metadata !646, metadata !649, metadata !650, metadata !653, metadata !654, metadata !658, metadata !662, metadata !663, metadata !666, metadata !667, metadata !671, metadata !672, metadata !673, metadata !674, metadata !677, metadata !678, metadata !679, metadata !680, metadata !681, metadata !682, metadata !683, metadata !684, metadata !685, metadata !686, metadata !687, metadata !688, metadata !698, metadata !701}
!455 = metadata !{i32 786460, metadata !453, null, metadata !222, i32 0, i64 0, i64 0, i64 0, i32 0, metadata !456} ; [ DW_TAG_inheritance ]
!456 = metadata !{i32 786434, null, metadata !"ssdm_int<5 + 1024 * 0, true>", metadata !226, i32 11, i64 8, i64 8, i32 0, i32 0, null, metadata !457, i32 0, null, metadata !464} ; [ DW_TAG_class_type ]
!457 = metadata !{metadata !458, metadata !460}
!458 = metadata !{i32 786445, metadata !456, metadata !"V", metadata !226, i32 11, i64 5, i64 8, i64 0, i32 0, metadata !459} ; [ DW_TAG_member ]
!459 = metadata !{i32 786468, null, metadata !"int5", null, i32 0, i64 5, i64 8, i64 0, i32 0, i32 5} ; [ DW_TAG_base_type ]
!460 = metadata !{i32 786478, i32 0, metadata !456, metadata !"ssdm_int", metadata !"ssdm_int", metadata !"", metadata !226, i32 11, metadata !461, i1 false, i1 false, i32 0, i32 0, null, i32 256, i1 false, null, null, i32 0, metadata !101, i32 11} ; [ DW_TAG_subprogram ]
!461 = metadata !{i32 786453, i32 0, metadata !"", i32 0, i32 0, i64 0, i64 0, i64 0, i32 0, null, metadata !462, i32 0, i32 0} ; [ DW_TAG_subroutine_type ]
!462 = metadata !{null, metadata !463}
!463 = metadata !{i32 786447, i32 0, metadata !"", i32 0, i32 0, i64 32, i64 32, i64 0, i32 64, metadata !456} ; [ DW_TAG_pointer_type ]
!464 = metadata !{metadata !465, metadata !466}
!465 = metadata !{i32 786480, null, metadata !"_AP_N", metadata !236, i64 5, null, i32 0, i32 0} ; [ DW_TAG_template_value_parameter ]
!466 = metadata !{i32 786480, null, metadata !"_AP_S", metadata !115, i64 1, null, i32 0, i32 0} ; [ DW_TAG_template_value_parameter ]
!467 = metadata !{i32 786478, i32 0, metadata !453, metadata !"ap_int_base", metadata !"ap_int_base", metadata !"", metadata !222, i32 1429, metadata !468, i1 false, i1 false, i32 0, i32 0, null, i32 256, i1 false, null, null, i32 0, metadata !101, i32 1429} ; [ DW_TAG_subprogram ]
!468 = metadata !{i32 786453, i32 0, metadata !"", i32 0, i32 0, i64 0, i64 0, i64 0, i32 0, null, metadata !469, i32 0, i32 0} ; [ DW_TAG_subroutine_type ]
!469 = metadata !{null, metadata !470}
!470 = metadata !{i32 786447, i32 0, metadata !"", i32 0, i32 0, i64 32, i64 32, i64 0, i32 64, metadata !453} ; [ DW_TAG_pointer_type ]
!471 = metadata !{i32 786478, i32 0, metadata !453, metadata !"ap_int_base", metadata !"ap_int_base", metadata !"", metadata !222, i32 1451, metadata !472, i1 false, i1 false, i32 0, i32 0, null, i32 384, i1 false, null, null, i32 0, metadata !101, i32 1451} ; [ DW_TAG_subprogram ]
!472 = metadata !{i32 786453, i32 0, metadata !"", i32 0, i32 0, i64 0, i64 0, i64 0, i32 0, null, metadata !473, i32 0, i32 0} ; [ DW_TAG_subroutine_type ]
!473 = metadata !{null, metadata !470, metadata !115}
!474 = metadata !{i32 786478, i32 0, metadata !453, metadata !"ap_int_base", metadata !"ap_int_base", metadata !"", metadata !222, i32 1452, metadata !475, i1 false, i1 false, i32 0, i32 0, null, i32 384, i1 false, null, null, i32 0, metadata !101, i32 1452} ; [ DW_TAG_subprogram ]
!475 = metadata !{i32 786453, i32 0, metadata !"", i32 0, i32 0, i64 0, i64 0, i64 0, i32 0, null, metadata !476, i32 0, i32 0} ; [ DW_TAG_subroutine_type ]
!476 = metadata !{null, metadata !470, metadata !262}
!477 = metadata !{i32 786478, i32 0, metadata !453, metadata !"ap_int_base", metadata !"ap_int_base", metadata !"", metadata !222, i32 1453, metadata !478, i1 false, i1 false, i32 0, i32 0, null, i32 384, i1 false, null, null, i32 0, metadata !101, i32 1453} ; [ DW_TAG_subprogram ]
!478 = metadata !{i32 786453, i32 0, metadata !"", i32 0, i32 0, i64 0, i64 0, i64 0, i32 0, null, metadata !479, i32 0, i32 0} ; [ DW_TAG_subroutine_type ]
!479 = metadata !{null, metadata !470, metadata !266}
!480 = metadata !{i32 786478, i32 0, metadata !453, metadata !"ap_int_base", metadata !"ap_int_base", metadata !"", metadata !222, i32 1454, metadata !481, i1 false, i1 false, i32 0, i32 0, null, i32 384, i1 false, null, null, i32 0, metadata !101, i32 1454} ; [ DW_TAG_subprogram ]
!481 = metadata !{i32 786453, i32 0, metadata !"", i32 0, i32 0, i64 0, i64 0, i64 0, i32 0, null, metadata !482, i32 0, i32 0} ; [ DW_TAG_subroutine_type ]
!482 = metadata !{null, metadata !470, metadata !270}
!483 = metadata !{i32 786478, i32 0, metadata !453, metadata !"ap_int_base", metadata !"ap_int_base", metadata !"", metadata !222, i32 1455, metadata !484, i1 false, i1 false, i32 0, i32 0, null, i32 384, i1 false, null, null, i32 0, metadata !101, i32 1455} ; [ DW_TAG_subprogram ]
!484 = metadata !{i32 786453, i32 0, metadata !"", i32 0, i32 0, i64 0, i64 0, i64 0, i32 0, null, metadata !485, i32 0, i32 0} ; [ DW_TAG_subroutine_type ]
!485 = metadata !{null, metadata !470, metadata !274}
!486 = metadata !{i32 786478, i32 0, metadata !453, metadata !"ap_int_base", metadata !"ap_int_base", metadata !"", metadata !222, i32 1456, metadata !487, i1 false, i1 false, i32 0, i32 0, null, i32 384, i1 false, null, null, i32 0, metadata !101, i32 1456} ; [ DW_TAG_subprogram ]
!487 = metadata !{i32 786453, i32 0, metadata !"", i32 0, i32 0, i64 0, i64 0, i64 0, i32 0, null, metadata !488, i32 0, i32 0} ; [ DW_TAG_subroutine_type ]
!488 = metadata !{null, metadata !470, metadata !236}
!489 = metadata !{i32 786478, i32 0, metadata !453, metadata !"ap_int_base", metadata !"ap_int_base", metadata !"", metadata !222, i32 1457, metadata !490, i1 false, i1 false, i32 0, i32 0, null, i32 384, i1 false, null, null, i32 0, metadata !101, i32 1457} ; [ DW_TAG_subprogram ]
!490 = metadata !{i32 786453, i32 0, metadata !"", i32 0, i32 0, i64 0, i64 0, i64 0, i32 0, null, metadata !491, i32 0, i32 0} ; [ DW_TAG_subroutine_type ]
!491 = metadata !{null, metadata !470, metadata !281}
!492 = metadata !{i32 786478, i32 0, metadata !453, metadata !"ap_int_base", metadata !"ap_int_base", metadata !"", metadata !222, i32 1458, metadata !493, i1 false, i1 false, i32 0, i32 0, null, i32 384, i1 false, null, null, i32 0, metadata !101, i32 1458} ; [ DW_TAG_subprogram ]
!493 = metadata !{i32 786453, i32 0, metadata !"", i32 0, i32 0, i64 0, i64 0, i64 0, i32 0, null, metadata !494, i32 0, i32 0} ; [ DW_TAG_subroutine_type ]
!494 = metadata !{null, metadata !470, metadata !285}
!495 = metadata !{i32 786478, i32 0, metadata !453, metadata !"ap_int_base", metadata !"ap_int_base", metadata !"", metadata !222, i32 1459, metadata !496, i1 false, i1 false, i32 0, i32 0, null, i32 384, i1 false, null, null, i32 0, metadata !101, i32 1459} ; [ DW_TAG_subprogram ]
!496 = metadata !{i32 786453, i32 0, metadata !"", i32 0, i32 0, i64 0, i64 0, i64 0, i32 0, null, metadata !497, i32 0, i32 0} ; [ DW_TAG_subroutine_type ]
!497 = metadata !{null, metadata !470, metadata !289}
!498 = metadata !{i32 786478, i32 0, metadata !453, metadata !"ap_int_base", metadata !"ap_int_base", metadata !"", metadata !222, i32 1460, metadata !499, i1 false, i1 false, i32 0, i32 0, null, i32 384, i1 false, null, null, i32 0, metadata !101, i32 1460} ; [ DW_TAG_subprogram ]
!499 = metadata !{i32 786453, i32 0, metadata !"", i32 0, i32 0, i64 0, i64 0, i64 0, i32 0, null, metadata !500, i32 0, i32 0} ; [ DW_TAG_subroutine_type ]
!500 = metadata !{null, metadata !470, metadata !293}
!501 = metadata !{i32 786478, i32 0, metadata !453, metadata !"ap_int_base", metadata !"ap_int_base", metadata !"", metadata !222, i32 1461, metadata !502, i1 false, i1 false, i32 0, i32 0, null, i32 384, i1 false, null, null, i32 0, metadata !101, i32 1461} ; [ DW_TAG_subprogram ]
!502 = metadata !{i32 786453, i32 0, metadata !"", i32 0, i32 0, i64 0, i64 0, i64 0, i32 0, null, metadata !503, i32 0, i32 0} ; [ DW_TAG_subroutine_type ]
!503 = metadata !{null, metadata !470, metadata !298}
!504 = metadata !{i32 786478, i32 0, metadata !453, metadata !"ap_int_base", metadata !"ap_int_base", metadata !"", metadata !222, i32 1462, metadata !505, i1 false, i1 false, i32 0, i32 0, null, i32 384, i1 false, null, null, i32 0, metadata !101, i32 1462} ; [ DW_TAG_subprogram ]
!505 = metadata !{i32 786453, i32 0, metadata !"", i32 0, i32 0, i64 0, i64 0, i64 0, i32 0, null, metadata !506, i32 0, i32 0} ; [ DW_TAG_subroutine_type ]
!506 = metadata !{null, metadata !470, metadata !303}
!507 = metadata !{i32 786478, i32 0, metadata !453, metadata !"ap_int_base", metadata !"ap_int_base", metadata !"", metadata !222, i32 1463, metadata !508, i1 false, i1 false, i32 0, i32 0, null, i32 384, i1 false, null, null, i32 0, metadata !101, i32 1463} ; [ DW_TAG_subprogram ]
!508 = metadata !{i32 786453, i32 0, metadata !"", i32 0, i32 0, i64 0, i64 0, i64 0, i32 0, null, metadata !509, i32 0, i32 0} ; [ DW_TAG_subroutine_type ]
!509 = metadata !{null, metadata !470, metadata !308}
!510 = metadata !{i32 786478, i32 0, metadata !453, metadata !"ap_int_base", metadata !"ap_int_base", metadata !"", metadata !222, i32 1464, metadata !511, i1 false, i1 false, i32 0, i32 0, null, i32 384, i1 false, null, null, i32 0, metadata !101, i32 1464} ; [ DW_TAG_subprogram ]
!511 = metadata !{i32 786453, i32 0, metadata !"", i32 0, i32 0, i64 0, i64 0, i64 0, i32 0, null, metadata !512, i32 0, i32 0} ; [ DW_TAG_subroutine_type ]
!512 = metadata !{null, metadata !470, metadata !312}
!513 = metadata !{i32 786478, i32 0, metadata !453, metadata !"ap_int_base", metadata !"ap_int_base", metadata !"", metadata !222, i32 1491, metadata !514, i1 false, i1 false, i32 0, i32 0, null, i32 256, i1 false, null, null, i32 0, metadata !101, i32 1491} ; [ DW_TAG_subprogram ]
!514 = metadata !{i32 786453, i32 0, metadata !"", i32 0, i32 0, i64 0, i64 0, i64 0, i32 0, null, metadata !515, i32 0, i32 0} ; [ DW_TAG_subroutine_type ]
!515 = metadata !{null, metadata !470, metadata !144}
!516 = metadata !{i32 786478, i32 0, metadata !453, metadata !"ap_int_base", metadata !"ap_int_base", metadata !"", metadata !222, i32 1498, metadata !517, i1 false, i1 false, i32 0, i32 0, null, i32 256, i1 false, null, null, i32 0, metadata !101, i32 1498} ; [ DW_TAG_subprogram ]
!517 = metadata !{i32 786453, i32 0, metadata !"", i32 0, i32 0, i64 0, i64 0, i64 0, i32 0, null, metadata !518, i32 0, i32 0} ; [ DW_TAG_subroutine_type ]
!518 = metadata !{null, metadata !470, metadata !144, metadata !262}
!519 = metadata !{i32 786478, i32 0, metadata !453, metadata !"read", metadata !"read", metadata !"_ZNV11ap_int_baseILi5ELb1ELb1EE4readEv", metadata !222, i32 1519, metadata !520, i1 false, i1 false, i32 0, i32 0, null, i32 256, i1 false, null, null, i32 0, metadata !101, i32 1519} ; [ DW_TAG_subprogram ]
!520 = metadata !{i32 786453, i32 0, metadata !"", i32 0, i32 0, i64 0, i64 0, i64 0, i32 0, null, metadata !521, i32 0, i32 0} ; [ DW_TAG_subroutine_type ]
!521 = metadata !{metadata !453, metadata !522}
!522 = metadata !{i32 786447, i32 0, metadata !"", i32 0, i32 0, i64 32, i64 32, i64 0, i32 64, metadata !523} ; [ DW_TAG_pointer_type ]
!523 = metadata !{i32 786485, null, metadata !"", null, i32 0, i64 0, i64 0, i64 0, i32 0, metadata !453} ; [ DW_TAG_volatile_type ]
!524 = metadata !{i32 786478, i32 0, metadata !453, metadata !"write", metadata !"write", metadata !"_ZNV11ap_int_baseILi5ELb1ELb1EE5writeERKS0_", metadata !222, i32 1525, metadata !525, i1 false, i1 false, i32 0, i32 0, null, i32 256, i1 false, null, null, i32 0, metadata !101, i32 1525} ; [ DW_TAG_subprogram ]
!525 = metadata !{i32 786453, i32 0, metadata !"", i32 0, i32 0, i64 0, i64 0, i64 0, i32 0, null, metadata !526, i32 0, i32 0} ; [ DW_TAG_subroutine_type ]
!526 = metadata !{null, metadata !522, metadata !527}
!527 = metadata !{i32 786448, null, null, null, i32 0, i64 0, i64 0, i64 0, i32 0, metadata !528} ; [ DW_TAG_reference_type ]
!528 = metadata !{i32 786470, null, metadata !"", null, i32 0, i64 0, i64 0, i64 0, i32 0, metadata !453} ; [ DW_TAG_const_type ]
!529 = metadata !{i32 786478, i32 0, metadata !453, metadata !"operator=", metadata !"operator=", metadata !"_ZNV11ap_int_baseILi5ELb1ELb1EEaSERVKS0_", metadata !222, i32 1537, metadata !530, i1 false, i1 false, i32 0, i32 0, null, i32 256, i1 false, null, null, i32 0, metadata !101, i32 1537} ; [ DW_TAG_subprogram ]
!530 = metadata !{i32 786453, i32 0, metadata !"", i32 0, i32 0, i64 0, i64 0, i64 0, i32 0, null, metadata !531, i32 0, i32 0} ; [ DW_TAG_subroutine_type ]
!531 = metadata !{null, metadata !522, metadata !532}
!532 = metadata !{i32 786448, null, null, null, i32 0, i64 0, i64 0, i64 0, i32 0, metadata !533} ; [ DW_TAG_reference_type ]
!533 = metadata !{i32 786470, null, metadata !"", null, i32 0, i64 0, i64 0, i64 0, i32 0, metadata !523} ; [ DW_TAG_const_type ]
!534 = metadata !{i32 786478, i32 0, metadata !453, metadata !"operator=", metadata !"operator=", metadata !"_ZNV11ap_int_baseILi5ELb1ELb1EEaSERKS0_", metadata !222, i32 1546, metadata !525, i1 false, i1 false, i32 0, i32 0, null, i32 256, i1 false, null, null, i32 0, metadata !101, i32 1546} ; [ DW_TAG_subprogram ]
!535 = metadata !{i32 786478, i32 0, metadata !453, metadata !"operator=", metadata !"operator=", metadata !"_ZN11ap_int_baseILi5ELb1ELb1EEaSERVKS0_", metadata !222, i32 1579, metadata !536, i1 false, i1 false, i32 0, i32 0, null, i32 256, i1 false, null, null, i32 0, metadata !101, i32 1579} ; [ DW_TAG_subprogram ]
!536 = metadata !{i32 786453, i32 0, metadata !"", i32 0, i32 0, i64 0, i64 0, i64 0, i32 0, null, metadata !537, i32 0, i32 0} ; [ DW_TAG_subroutine_type ]
!537 = metadata !{metadata !538, metadata !470, metadata !532}
!538 = metadata !{i32 786448, null, null, null, i32 0, i64 0, i64 0, i64 0, i32 0, metadata !453} ; [ DW_TAG_reference_type ]
!539 = metadata !{i32 786478, i32 0, metadata !453, metadata !"operator=", metadata !"operator=", metadata !"_ZN11ap_int_baseILi5ELb1ELb1EEaSERKS0_", metadata !222, i32 1584, metadata !540, i1 false, i1 false, i32 0, i32 0, null, i32 256, i1 false, null, null, i32 0, metadata !101, i32 1584} ; [ DW_TAG_subprogram ]
!540 = metadata !{i32 786453, i32 0, metadata !"", i32 0, i32 0, i64 0, i64 0, i64 0, i32 0, null, metadata !541, i32 0, i32 0} ; [ DW_TAG_subroutine_type ]
!541 = metadata !{metadata !538, metadata !470, metadata !527}
!542 = metadata !{i32 786478, i32 0, metadata !453, metadata !"operator=", metadata !"operator=", metadata !"_ZN11ap_int_baseILi5ELb1ELb1EEaSEPKc", metadata !222, i32 1588, metadata !543, i1 false, i1 false, i32 0, i32 0, null, i32 256, i1 false, null, null, i32 0, metadata !101, i32 1588} ; [ DW_TAG_subprogram ]
!543 = metadata !{i32 786453, i32 0, metadata !"", i32 0, i32 0, i64 0, i64 0, i64 0, i32 0, null, metadata !544, i32 0, i32 0} ; [ DW_TAG_subroutine_type ]
!544 = metadata !{metadata !538, metadata !470, metadata !144}
!545 = metadata !{i32 786478, i32 0, metadata !453, metadata !"set", metadata !"set", metadata !"_ZN11ap_int_baseILi5ELb1ELb1EE3setEPKca", metadata !222, i32 1596, metadata !546, i1 false, i1 false, i32 0, i32 0, null, i32 256, i1 false, null, null, i32 0, metadata !101, i32 1596} ; [ DW_TAG_subprogram ]
!546 = metadata !{i32 786453, i32 0, metadata !"", i32 0, i32 0, i64 0, i64 0, i64 0, i32 0, null, metadata !547, i32 0, i32 0} ; [ DW_TAG_subroutine_type ]
!547 = metadata !{metadata !538, metadata !470, metadata !144, metadata !262}
!548 = metadata !{i32 786478, i32 0, metadata !453, metadata !"operator=", metadata !"operator=", metadata !"_ZN11ap_int_baseILi5ELb1ELb1EEaSEa", metadata !222, i32 1610, metadata !549, i1 false, i1 false, i32 0, i32 0, null, i32 256, i1 false, null, null, i32 0, metadata !101, i32 1610} ; [ DW_TAG_subprogram ]
!549 = metadata !{i32 786453, i32 0, metadata !"", i32 0, i32 0, i64 0, i64 0, i64 0, i32 0, null, metadata !550, i32 0, i32 0} ; [ DW_TAG_subroutine_type ]
!550 = metadata !{metadata !538, metadata !470, metadata !262}
!551 = metadata !{i32 786478, i32 0, metadata !453, metadata !"operator=", metadata !"operator=", metadata !"_ZN11ap_int_baseILi5ELb1ELb1EEaSEh", metadata !222, i32 1611, metadata !552, i1 false, i1 false, i32 0, i32 0, null, i32 256, i1 false, null, null, i32 0, metadata !101, i32 1611} ; [ DW_TAG_subprogram ]
!552 = metadata !{i32 786453, i32 0, metadata !"", i32 0, i32 0, i64 0, i64 0, i64 0, i32 0, null, metadata !553, i32 0, i32 0} ; [ DW_TAG_subroutine_type ]
!553 = metadata !{metadata !538, metadata !470, metadata !266}
!554 = metadata !{i32 786478, i32 0, metadata !453, metadata !"operator=", metadata !"operator=", metadata !"_ZN11ap_int_baseILi5ELb1ELb1EEaSEs", metadata !222, i32 1612, metadata !555, i1 false, i1 false, i32 0, i32 0, null, i32 256, i1 false, null, null, i32 0, metadata !101, i32 1612} ; [ DW_TAG_subprogram ]
!555 = metadata !{i32 786453, i32 0, metadata !"", i32 0, i32 0, i64 0, i64 0, i64 0, i32 0, null, metadata !556, i32 0, i32 0} ; [ DW_TAG_subroutine_type ]
!556 = metadata !{metadata !538, metadata !470, metadata !270}
!557 = metadata !{i32 786478, i32 0, metadata !453, metadata !"operator=", metadata !"operator=", metadata !"_ZN11ap_int_baseILi5ELb1ELb1EEaSEt", metadata !222, i32 1613, metadata !558, i1 false, i1 false, i32 0, i32 0, null, i32 256, i1 false, null, null, i32 0, metadata !101, i32 1613} ; [ DW_TAG_subprogram ]
!558 = metadata !{i32 786453, i32 0, metadata !"", i32 0, i32 0, i64 0, i64 0, i64 0, i32 0, null, metadata !559, i32 0, i32 0} ; [ DW_TAG_subroutine_type ]
!559 = metadata !{metadata !538, metadata !470, metadata !274}
!560 = metadata !{i32 786478, i32 0, metadata !453, metadata !"operator=", metadata !"operator=", metadata !"_ZN11ap_int_baseILi5ELb1ELb1EEaSEi", metadata !222, i32 1614, metadata !561, i1 false, i1 false, i32 0, i32 0, null, i32 256, i1 false, null, null, i32 0, metadata !101, i32 1614} ; [ DW_TAG_subprogram ]
!561 = metadata !{i32 786453, i32 0, metadata !"", i32 0, i32 0, i64 0, i64 0, i64 0, i32 0, null, metadata !562, i32 0, i32 0} ; [ DW_TAG_subroutine_type ]
!562 = metadata !{metadata !538, metadata !470, metadata !236}
!563 = metadata !{i32 786478, i32 0, metadata !453, metadata !"operator=", metadata !"operator=", metadata !"_ZN11ap_int_baseILi5ELb1ELb1EEaSEj", metadata !222, i32 1615, metadata !564, i1 false, i1 false, i32 0, i32 0, null, i32 256, i1 false, null, null, i32 0, metadata !101, i32 1615} ; [ DW_TAG_subprogram ]
!564 = metadata !{i32 786453, i32 0, metadata !"", i32 0, i32 0, i64 0, i64 0, i64 0, i32 0, null, metadata !565, i32 0, i32 0} ; [ DW_TAG_subroutine_type ]
!565 = metadata !{metadata !538, metadata !470, metadata !281}
!566 = metadata !{i32 786478, i32 0, metadata !453, metadata !"operator=", metadata !"operator=", metadata !"_ZN11ap_int_baseILi5ELb1ELb1EEaSEx", metadata !222, i32 1616, metadata !567, i1 false, i1 false, i32 0, i32 0, null, i32 256, i1 false, null, null, i32 0, metadata !101, i32 1616} ; [ DW_TAG_subprogram ]
!567 = metadata !{i32 786453, i32 0, metadata !"", i32 0, i32 0, i64 0, i64 0, i64 0, i32 0, null, metadata !568, i32 0, i32 0} ; [ DW_TAG_subroutine_type ]
!568 = metadata !{metadata !538, metadata !470, metadata !293}
!569 = metadata !{i32 786478, i32 0, metadata !453, metadata !"operator=", metadata !"operator=", metadata !"_ZN11ap_int_baseILi5ELb1ELb1EEaSEy", metadata !222, i32 1617, metadata !570, i1 false, i1 false, i32 0, i32 0, null, i32 256, i1 false, null, null, i32 0, metadata !101, i32 1617} ; [ DW_TAG_subprogram ]
!570 = metadata !{i32 786453, i32 0, metadata !"", i32 0, i32 0, i64 0, i64 0, i64 0, i32 0, null, metadata !571, i32 0, i32 0} ; [ DW_TAG_subroutine_type ]
!571 = metadata !{metadata !538, metadata !470, metadata !298}
!572 = metadata !{i32 786478, i32 0, metadata !453, metadata !"operator signed char", metadata !"operator signed char", metadata !"_ZNK11ap_int_baseILi5ELb1ELb1EEcvaEv", metadata !222, i32 1655, metadata !573, i1 false, i1 false, i32 0, i32 0, null, i32 256, i1 false, null, null, i32 0, metadata !101, i32 1655} ; [ DW_TAG_subprogram ]
!573 = metadata !{i32 786453, i32 0, metadata !"", i32 0, i32 0, i64 0, i64 0, i64 0, i32 0, null, metadata !574, i32 0, i32 0} ; [ DW_TAG_subroutine_type ]
!574 = metadata !{metadata !575, metadata !579}
!575 = metadata !{i32 786454, metadata !453, metadata !"RetType", metadata !222, i32 1393, i64 0, i64 0, i64 0, i32 0, metadata !576} ; [ DW_TAG_typedef ]
!576 = metadata !{i32 786454, metadata !577, metadata !"Type", metadata !222, i32 1362, i64 0, i64 0, i64 0, i32 0, metadata !262} ; [ DW_TAG_typedef ]
!577 = metadata !{i32 786434, null, metadata !"retval<1, true>", metadata !222, i32 1361, i64 8, i64 8, i32 0, i32 0, null, metadata !157, i32 0, null, metadata !578} ; [ DW_TAG_class_type ]
!578 = metadata !{metadata !374, metadata !466}
!579 = metadata !{i32 786447, i32 0, metadata !"", i32 0, i32 0, i64 32, i64 32, i64 0, i32 64, metadata !528} ; [ DW_TAG_pointer_type ]
!580 = metadata !{i32 786478, i32 0, metadata !453, metadata !"to_bool", metadata !"to_bool", metadata !"_ZNK11ap_int_baseILi5ELb1ELb1EE7to_boolEv", metadata !222, i32 1661, metadata !581, i1 false, i1 false, i32 0, i32 0, null, i32 256, i1 false, null, null, i32 0, metadata !101, i32 1661} ; [ DW_TAG_subprogram ]
!581 = metadata !{i32 786453, i32 0, metadata !"", i32 0, i32 0, i64 0, i64 0, i64 0, i32 0, null, metadata !582, i32 0, i32 0} ; [ DW_TAG_subroutine_type ]
!582 = metadata !{metadata !115, metadata !579}
!583 = metadata !{i32 786478, i32 0, metadata !453, metadata !"to_uchar", metadata !"to_uchar", metadata !"_ZNK11ap_int_baseILi5ELb1ELb1EE8to_ucharEv", metadata !222, i32 1662, metadata !584, i1 false, i1 false, i32 0, i32 0, null, i32 256, i1 false, null, null, i32 0, metadata !101, i32 1662} ; [ DW_TAG_subprogram ]
!584 = metadata !{i32 786453, i32 0, metadata !"", i32 0, i32 0, i64 0, i64 0, i64 0, i32 0, null, metadata !585, i32 0, i32 0} ; [ DW_TAG_subroutine_type ]
!585 = metadata !{metadata !266, metadata !579}
!586 = metadata !{i32 786478, i32 0, metadata !453, metadata !"to_char", metadata !"to_char", metadata !"_ZNK11ap_int_baseILi5ELb1ELb1EE7to_charEv", metadata !222, i32 1663, metadata !587, i1 false, i1 false, i32 0, i32 0, null, i32 256, i1 false, null, null, i32 0, metadata !101, i32 1663} ; [ DW_TAG_subprogram ]
!587 = metadata !{i32 786453, i32 0, metadata !"", i32 0, i32 0, i64 0, i64 0, i64 0, i32 0, null, metadata !588, i32 0, i32 0} ; [ DW_TAG_subroutine_type ]
!588 = metadata !{metadata !262, metadata !579}
!589 = metadata !{i32 786478, i32 0, metadata !453, metadata !"to_ushort", metadata !"to_ushort", metadata !"_ZNK11ap_int_baseILi5ELb1ELb1EE9to_ushortEv", metadata !222, i32 1664, metadata !590, i1 false, i1 false, i32 0, i32 0, null, i32 256, i1 false, null, null, i32 0, metadata !101, i32 1664} ; [ DW_TAG_subprogram ]
!590 = metadata !{i32 786453, i32 0, metadata !"", i32 0, i32 0, i64 0, i64 0, i64 0, i32 0, null, metadata !591, i32 0, i32 0} ; [ DW_TAG_subroutine_type ]
!591 = metadata !{metadata !274, metadata !579}
!592 = metadata !{i32 786478, i32 0, metadata !453, metadata !"to_short", metadata !"to_short", metadata !"_ZNK11ap_int_baseILi5ELb1ELb1EE8to_shortEv", metadata !222, i32 1665, metadata !593, i1 false, i1 false, i32 0, i32 0, null, i32 256, i1 false, null, null, i32 0, metadata !101, i32 1665} ; [ DW_TAG_subprogram ]
!593 = metadata !{i32 786453, i32 0, metadata !"", i32 0, i32 0, i64 0, i64 0, i64 0, i32 0, null, metadata !594, i32 0, i32 0} ; [ DW_TAG_subroutine_type ]
!594 = metadata !{metadata !270, metadata !579}
!595 = metadata !{i32 786478, i32 0, metadata !453, metadata !"to_int", metadata !"to_int", metadata !"_ZNK11ap_int_baseILi5ELb1ELb1EE6to_intEv", metadata !222, i32 1666, metadata !596, i1 false, i1 false, i32 0, i32 0, null, i32 256, i1 false, null, null, i32 0, metadata !101, i32 1666} ; [ DW_TAG_subprogram ]
!596 = metadata !{i32 786453, i32 0, metadata !"", i32 0, i32 0, i64 0, i64 0, i64 0, i32 0, null, metadata !597, i32 0, i32 0} ; [ DW_TAG_subroutine_type ]
!597 = metadata !{metadata !236, metadata !579}
!598 = metadata !{i32 786478, i32 0, metadata !453, metadata !"to_uint", metadata !"to_uint", metadata !"_ZNK11ap_int_baseILi5ELb1ELb1EE7to_uintEv", metadata !222, i32 1667, metadata !599, i1 false, i1 false, i32 0, i32 0, null, i32 256, i1 false, null, null, i32 0, metadata !101, i32 1667} ; [ DW_TAG_subprogram ]
!599 = metadata !{i32 786453, i32 0, metadata !"", i32 0, i32 0, i64 0, i64 0, i64 0, i32 0, null, metadata !600, i32 0, i32 0} ; [ DW_TAG_subroutine_type ]
!600 = metadata !{metadata !281, metadata !579}
!601 = metadata !{i32 786478, i32 0, metadata !453, metadata !"to_long", metadata !"to_long", metadata !"_ZNK11ap_int_baseILi5ELb1ELb1EE7to_longEv", metadata !222, i32 1668, metadata !602, i1 false, i1 false, i32 0, i32 0, null, i32 256, i1 false, null, null, i32 0, metadata !101, i32 1668} ; [ DW_TAG_subprogram ]
!602 = metadata !{i32 786453, i32 0, metadata !"", i32 0, i32 0, i64 0, i64 0, i64 0, i32 0, null, metadata !603, i32 0, i32 0} ; [ DW_TAG_subroutine_type ]
!603 = metadata !{metadata !285, metadata !579}
!604 = metadata !{i32 786478, i32 0, metadata !453, metadata !"to_ulong", metadata !"to_ulong", metadata !"_ZNK11ap_int_baseILi5ELb1ELb1EE8to_ulongEv", metadata !222, i32 1669, metadata !605, i1 false, i1 false, i32 0, i32 0, null, i32 256, i1 false, null, null, i32 0, metadata !101, i32 1669} ; [ DW_TAG_subprogram ]
!605 = metadata !{i32 786453, i32 0, metadata !"", i32 0, i32 0, i64 0, i64 0, i64 0, i32 0, null, metadata !606, i32 0, i32 0} ; [ DW_TAG_subroutine_type ]
!606 = metadata !{metadata !289, metadata !579}
!607 = metadata !{i32 786478, i32 0, metadata !453, metadata !"to_int64", metadata !"to_int64", metadata !"_ZNK11ap_int_baseILi5ELb1ELb1EE8to_int64Ev", metadata !222, i32 1670, metadata !608, i1 false, i1 false, i32 0, i32 0, null, i32 256, i1 false, null, null, i32 0, metadata !101, i32 1670} ; [ DW_TAG_subprogram ]
!608 = metadata !{i32 786453, i32 0, metadata !"", i32 0, i32 0, i64 0, i64 0, i64 0, i32 0, null, metadata !609, i32 0, i32 0} ; [ DW_TAG_subroutine_type ]
!609 = metadata !{metadata !293, metadata !579}
!610 = metadata !{i32 786478, i32 0, metadata !453, metadata !"to_uint64", metadata !"to_uint64", metadata !"_ZNK11ap_int_baseILi5ELb1ELb1EE9to_uint64Ev", metadata !222, i32 1671, metadata !611, i1 false, i1 false, i32 0, i32 0, null, i32 256, i1 false, null, null, i32 0, metadata !101, i32 1671} ; [ DW_TAG_subprogram ]
!611 = metadata !{i32 786453, i32 0, metadata !"", i32 0, i32 0, i64 0, i64 0, i64 0, i32 0, null, metadata !612, i32 0, i32 0} ; [ DW_TAG_subroutine_type ]
!612 = metadata !{metadata !298, metadata !579}
!613 = metadata !{i32 786478, i32 0, metadata !453, metadata !"to_double", metadata !"to_double", metadata !"_ZNK11ap_int_baseILi5ELb1ELb1EE9to_doubleEv", metadata !222, i32 1672, metadata !614, i1 false, i1 false, i32 0, i32 0, null, i32 256, i1 false, null, null, i32 0, metadata !101, i32 1672} ; [ DW_TAG_subprogram ]
!614 = metadata !{i32 786453, i32 0, metadata !"", i32 0, i32 0, i64 0, i64 0, i64 0, i32 0, null, metadata !615, i32 0, i32 0} ; [ DW_TAG_subroutine_type ]
!615 = metadata !{metadata !312, metadata !579}
!616 = metadata !{i32 786478, i32 0, metadata !453, metadata !"length", metadata !"length", metadata !"_ZNK11ap_int_baseILi5ELb1ELb1EE6lengthEv", metadata !222, i32 1686, metadata !596, i1 false, i1 false, i32 0, i32 0, null, i32 256, i1 false, null, null, i32 0, metadata !101, i32 1686} ; [ DW_TAG_subprogram ]
!617 = metadata !{i32 786478, i32 0, metadata !453, metadata !"length", metadata !"length", metadata !"_ZNVK11ap_int_baseILi5ELb1ELb1EE6lengthEv", metadata !222, i32 1687, metadata !618, i1 false, i1 false, i32 0, i32 0, null, i32 256, i1 false, null, null, i32 0, metadata !101, i32 1687} ; [ DW_TAG_subprogram ]
!618 = metadata !{i32 786453, i32 0, metadata !"", i32 0, i32 0, i64 0, i64 0, i64 0, i32 0, null, metadata !619, i32 0, i32 0} ; [ DW_TAG_subroutine_type ]
!619 = metadata !{metadata !236, metadata !620}
!620 = metadata !{i32 786447, i32 0, metadata !"", i32 0, i32 0, i64 32, i64 32, i64 0, i32 64, metadata !533} ; [ DW_TAG_pointer_type ]
!621 = metadata !{i32 786478, i32 0, metadata !453, metadata !"reverse", metadata !"reverse", metadata !"_ZN11ap_int_baseILi5ELb1ELb1EE7reverseEv", metadata !222, i32 1692, metadata !622, i1 false, i1 false, i32 0, i32 0, null, i32 256, i1 false, null, null, i32 0, metadata !101, i32 1692} ; [ DW_TAG_subprogram ]
!622 = metadata !{i32 786453, i32 0, metadata !"", i32 0, i32 0, i64 0, i64 0, i64 0, i32 0, null, metadata !623, i32 0, i32 0} ; [ DW_TAG_subroutine_type ]
!623 = metadata !{metadata !538, metadata !470}
!624 = metadata !{i32 786478, i32 0, metadata !453, metadata !"iszero", metadata !"iszero", metadata !"_ZNK11ap_int_baseILi5ELb1ELb1EE6iszeroEv", metadata !222, i32 1698, metadata !581, i1 false, i1 false, i32 0, i32 0, null, i32 256, i1 false, null, null, i32 0, metadata !101, i32 1698} ; [ DW_TAG_subprogram ]
!625 = metadata !{i32 786478, i32 0, metadata !453, metadata !"is_zero", metadata !"is_zero", metadata !"_ZNK11ap_int_baseILi5ELb1ELb1EE7is_zeroEv", metadata !222, i32 1703, metadata !581, i1 false, i1 false, i32 0, i32 0, null, i32 256, i1 false, null, null, i32 0, metadata !101, i32 1703} ; [ DW_TAG_subprogram ]
!626 = metadata !{i32 786478, i32 0, metadata !453, metadata !"sign", metadata !"sign", metadata !"_ZNK11ap_int_baseILi5ELb1ELb1EE4signEv", metadata !222, i32 1708, metadata !581, i1 false, i1 false, i32 0, i32 0, null, i32 256, i1 false, null, null, i32 0, metadata !101, i32 1708} ; [ DW_TAG_subprogram ]
!627 = metadata !{i32 786478, i32 0, metadata !453, metadata !"clear", metadata !"clear", metadata !"_ZN11ap_int_baseILi5ELb1ELb1EE5clearEi", metadata !222, i32 1716, metadata !487, i1 false, i1 false, i32 0, i32 0, null, i32 256, i1 false, null, null, i32 0, metadata !101, i32 1716} ; [ DW_TAG_subprogram ]
!628 = metadata !{i32 786478, i32 0, metadata !453, metadata !"invert", metadata !"invert", metadata !"_ZN11ap_int_baseILi5ELb1ELb1EE6invertEi", metadata !222, i32 1722, metadata !487, i1 false, i1 false, i32 0, i32 0, null, i32 256, i1 false, null, null, i32 0, metadata !101, i32 1722} ; [ DW_TAG_subprogram ]
!629 = metadata !{i32 786478, i32 0, metadata !453, metadata !"test", metadata !"test", metadata !"_ZNK11ap_int_baseILi5ELb1ELb1EE4testEi", metadata !222, i32 1730, metadata !630, i1 false, i1 false, i32 0, i32 0, null, i32 256, i1 false, null, null, i32 0, metadata !101, i32 1730} ; [ DW_TAG_subprogram ]
!630 = metadata !{i32 786453, i32 0, metadata !"", i32 0, i32 0, i64 0, i64 0, i64 0, i32 0, null, metadata !631, i32 0, i32 0} ; [ DW_TAG_subroutine_type ]
!631 = metadata !{metadata !115, metadata !579, metadata !236}
!632 = metadata !{i32 786478, i32 0, metadata !453, metadata !"set", metadata !"set", metadata !"_ZN11ap_int_baseILi5ELb1ELb1EE3setEi", metadata !222, i32 1736, metadata !487, i1 false, i1 false, i32 0, i32 0, null, i32 256, i1 false, null, null, i32 0, metadata !101, i32 1736} ; [ DW_TAG_subprogram ]
!633 = metadata !{i32 786478, i32 0, metadata !453, metadata !"set", metadata !"set", metadata !"_ZN11ap_int_baseILi5ELb1ELb1EE3setEib", metadata !222, i32 1742, metadata !634, i1 false, i1 false, i32 0, i32 0, null, i32 256, i1 false, null, null, i32 0, metadata !101, i32 1742} ; [ DW_TAG_subprogram ]
!634 = metadata !{i32 786453, i32 0, metadata !"", i32 0, i32 0, i64 0, i64 0, i64 0, i32 0, null, metadata !635, i32 0, i32 0} ; [ DW_TAG_subroutine_type ]
!635 = metadata !{null, metadata !470, metadata !236, metadata !115}
!636 = metadata !{i32 786478, i32 0, metadata !453, metadata !"lrotate", metadata !"lrotate", metadata !"_ZN11ap_int_baseILi5ELb1ELb1EE7lrotateEi", metadata !222, i32 1749, metadata !487, i1 false, i1 false, i32 0, i32 0, null, i32 256, i1 false, null, null, i32 0, metadata !101, i32 1749} ; [ DW_TAG_subprogram ]
!637 = metadata !{i32 786478, i32 0, metadata !453, metadata !"rrotate", metadata !"rrotate", metadata !"_ZN11ap_int_baseILi5ELb1ELb1EE7rrotateEi", metadata !222, i32 1758, metadata !487, i1 false, i1 false, i32 0, i32 0, null, i32 256, i1 false, null, null, i32 0, metadata !101, i32 1758} ; [ DW_TAG_subprogram ]
!638 = metadata !{i32 786478, i32 0, metadata !453, metadata !"set_bit", metadata !"set_bit", metadata !"_ZN11ap_int_baseILi5ELb1ELb1EE7set_bitEib", metadata !222, i32 1766, metadata !634, i1 false, i1 false, i32 0, i32 0, null, i32 256, i1 false, null, null, i32 0, metadata !101, i32 1766} ; [ DW_TAG_subprogram ]
!639 = metadata !{i32 786478, i32 0, metadata !453, metadata !"get_bit", metadata !"get_bit", metadata !"_ZNK11ap_int_baseILi5ELb1ELb1EE7get_bitEi", metadata !222, i32 1771, metadata !630, i1 false, i1 false, i32 0, i32 0, null, i32 256, i1 false, null, null, i32 0, metadata !101, i32 1771} ; [ DW_TAG_subprogram ]
!640 = metadata !{i32 786478, i32 0, metadata !453, metadata !"b_not", metadata !"b_not", metadata !"_ZN11ap_int_baseILi5ELb1ELb1EE5b_notEv", metadata !222, i32 1776, metadata !468, i1 false, i1 false, i32 0, i32 0, null, i32 256, i1 false, null, null, i32 0, metadata !101, i32 1776} ; [ DW_TAG_subprogram ]
!641 = metadata !{i32 786478, i32 0, metadata !453, metadata !"countLeadingZeros", metadata !"countLeadingZeros", metadata !"_ZN11ap_int_baseILi5ELb1ELb1EE17countLeadingZerosEv", metadata !222, i32 1783, metadata !642, i1 false, i1 false, i32 0, i32 0, null, i32 256, i1 false, null, null, i32 0, metadata !101, i32 1783} ; [ DW_TAG_subprogram ]
!642 = metadata !{i32 786453, i32 0, metadata !"", i32 0, i32 0, i64 0, i64 0, i64 0, i32 0, null, metadata !643, i32 0, i32 0} ; [ DW_TAG_subroutine_type ]
!643 = metadata !{metadata !236, metadata !470}
!644 = metadata !{i32 786478, i32 0, metadata !453, metadata !"operator++", metadata !"operator++", metadata !"_ZN11ap_int_baseILi5ELb1ELb1EEppEv", metadata !222, i32 1840, metadata !622, i1 false, i1 false, i32 0, i32 0, null, i32 256, i1 false, null, null, i32 0, metadata !101, i32 1840} ; [ DW_TAG_subprogram ]
!645 = metadata !{i32 786478, i32 0, metadata !453, metadata !"operator--", metadata !"operator--", metadata !"_ZN11ap_int_baseILi5ELb1ELb1EEmmEv", metadata !222, i32 1844, metadata !622, i1 false, i1 false, i32 0, i32 0, null, i32 256, i1 false, null, null, i32 0, metadata !101, i32 1844} ; [ DW_TAG_subprogram ]
!646 = metadata !{i32 786478, i32 0, metadata !453, metadata !"operator++", metadata !"operator++", metadata !"_ZN11ap_int_baseILi5ELb1ELb1EEppEi", metadata !222, i32 1852, metadata !647, i1 false, i1 false, i32 0, i32 0, null, i32 256, i1 false, null, null, i32 0, metadata !101, i32 1852} ; [ DW_TAG_subprogram ]
!647 = metadata !{i32 786453, i32 0, metadata !"", i32 0, i32 0, i64 0, i64 0, i64 0, i32 0, null, metadata !648, i32 0, i32 0} ; [ DW_TAG_subroutine_type ]
!648 = metadata !{metadata !528, metadata !470, metadata !236}
!649 = metadata !{i32 786478, i32 0, metadata !453, metadata !"operator--", metadata !"operator--", metadata !"_ZN11ap_int_baseILi5ELb1ELb1EEmmEi", metadata !222, i32 1857, metadata !647, i1 false, i1 false, i32 0, i32 0, null, i32 256, i1 false, null, null, i32 0, metadata !101, i32 1857} ; [ DW_TAG_subprogram ]
!650 = metadata !{i32 786478, i32 0, metadata !453, metadata !"operator+", metadata !"operator+", metadata !"_ZNK11ap_int_baseILi5ELb1ELb1EEpsEv", metadata !222, i32 1866, metadata !651, i1 false, i1 false, i32 0, i32 0, null, i32 256, i1 false, null, null, i32 0, metadata !101, i32 1866} ; [ DW_TAG_subprogram ]
!651 = metadata !{i32 786453, i32 0, metadata !"", i32 0, i32 0, i64 0, i64 0, i64 0, i32 0, null, metadata !652, i32 0, i32 0} ; [ DW_TAG_subroutine_type ]
!652 = metadata !{metadata !453, metadata !579}
!653 = metadata !{i32 786478, i32 0, metadata !453, metadata !"operator!", metadata !"operator!", metadata !"_ZNK11ap_int_baseILi5ELb1ELb1EEntEv", metadata !222, i32 1872, metadata !581, i1 false, i1 false, i32 0, i32 0, null, i32 256, i1 false, null, null, i32 0, metadata !101, i32 1872} ; [ DW_TAG_subprogram ]
!654 = metadata !{i32 786478, i32 0, metadata !453, metadata !"operator-", metadata !"operator-", metadata !"_ZNK11ap_int_baseILi5ELb1ELb1EEngEv", metadata !222, i32 1877, metadata !655, i1 false, i1 false, i32 0, i32 0, null, i32 256, i1 false, null, null, i32 0, metadata !101, i32 1877} ; [ DW_TAG_subprogram ]
!655 = metadata !{i32 786453, i32 0, metadata !"", i32 0, i32 0, i64 0, i64 0, i64 0, i32 0, null, metadata !656, i32 0, i32 0} ; [ DW_TAG_subroutine_type ]
!656 = metadata !{metadata !657, metadata !579}
!657 = metadata !{i32 786434, null, metadata !"ap_int_base<6, true, true>", metadata !222, i32 650, i32 0, i32 0, i32 0, i32 4, null, null, i32 0} ; [ DW_TAG_class_type ]
!658 = metadata !{i32 786478, i32 0, metadata !453, metadata !"range", metadata !"range", metadata !"_ZN11ap_int_baseILi5ELb1ELb1EE5rangeEii", metadata !222, i32 2007, metadata !659, i1 false, i1 false, i32 0, i32 0, null, i32 256, i1 false, null, null, i32 0, metadata !101, i32 2007} ; [ DW_TAG_subprogram ]
!659 = metadata !{i32 786453, i32 0, metadata !"", i32 0, i32 0, i64 0, i64 0, i64 0, i32 0, null, metadata !660, i32 0, i32 0} ; [ DW_TAG_subroutine_type ]
!660 = metadata !{metadata !661, metadata !470, metadata !236, metadata !236}
!661 = metadata !{i32 786434, null, metadata !"ap_range_ref<5, true>", metadata !222, i32 921, i32 0, i32 0, i32 0, i32 4, null, null, i32 0} ; [ DW_TAG_class_type ]
!662 = metadata !{i32 786478, i32 0, metadata !453, metadata !"operator()", metadata !"operator()", metadata !"_ZN11ap_int_baseILi5ELb1ELb1EEclEii", metadata !222, i32 2013, metadata !659, i1 false, i1 false, i32 0, i32 0, null, i32 256, i1 false, null, null, i32 0, metadata !101, i32 2013} ; [ DW_TAG_subprogram ]
!663 = metadata !{i32 786478, i32 0, metadata !453, metadata !"range", metadata !"range", metadata !"_ZNK11ap_int_baseILi5ELb1ELb1EE5rangeEii", metadata !222, i32 2019, metadata !664, i1 false, i1 false, i32 0, i32 0, null, i32 256, i1 false, null, null, i32 0, metadata !101, i32 2019} ; [ DW_TAG_subprogram ]
!664 = metadata !{i32 786453, i32 0, metadata !"", i32 0, i32 0, i64 0, i64 0, i64 0, i32 0, null, metadata !665, i32 0, i32 0} ; [ DW_TAG_subroutine_type ]
!665 = metadata !{metadata !661, metadata !579, metadata !236, metadata !236}
!666 = metadata !{i32 786478, i32 0, metadata !453, metadata !"operator()", metadata !"operator()", metadata !"_ZNK11ap_int_baseILi5ELb1ELb1EEclEii", metadata !222, i32 2025, metadata !664, i1 false, i1 false, i32 0, i32 0, null, i32 256, i1 false, null, null, i32 0, metadata !101, i32 2025} ; [ DW_TAG_subprogram ]
!667 = metadata !{i32 786478, i32 0, metadata !453, metadata !"operator[]", metadata !"operator[]", metadata !"_ZN11ap_int_baseILi5ELb1ELb1EEixEi", metadata !222, i32 2044, metadata !668, i1 false, i1 false, i32 0, i32 0, null, i32 256, i1 false, null, null, i32 0, metadata !101, i32 2044} ; [ DW_TAG_subprogram ]
!668 = metadata !{i32 786453, i32 0, metadata !"", i32 0, i32 0, i64 0, i64 0, i64 0, i32 0, null, metadata !669, i32 0, i32 0} ; [ DW_TAG_subroutine_type ]
!669 = metadata !{metadata !670, metadata !470, metadata !236}
!670 = metadata !{i32 786434, null, metadata !"ap_bit_ref<5, true>", metadata !222, i32 1188, i32 0, i32 0, i32 0, i32 4, null, null, i32 0} ; [ DW_TAG_class_type ]
!671 = metadata !{i32 786478, i32 0, metadata !453, metadata !"operator[]", metadata !"operator[]", metadata !"_ZNK11ap_int_baseILi5ELb1ELb1EEixEi", metadata !222, i32 2058, metadata !630, i1 false, i1 false, i32 0, i32 0, null, i32 256, i1 false, null, null, i32 0, metadata !101, i32 2058} ; [ DW_TAG_subprogram ]
!672 = metadata !{i32 786478, i32 0, metadata !453, metadata !"bit", metadata !"bit", metadata !"_ZN11ap_int_baseILi5ELb1ELb1EE3bitEi", metadata !222, i32 2072, metadata !668, i1 false, i1 false, i32 0, i32 0, null, i32 256, i1 false, null, null, i32 0, metadata !101, i32 2072} ; [ DW_TAG_subprogram ]
!673 = metadata !{i32 786478, i32 0, metadata !453, metadata !"bit", metadata !"bit", metadata !"_ZNK11ap_int_baseILi5ELb1ELb1EE3bitEi", metadata !222, i32 2086, metadata !630, i1 false, i1 false, i32 0, i32 0, null, i32 256, i1 false, null, null, i32 0, metadata !101, i32 2086} ; [ DW_TAG_subprogram ]
!674 = metadata !{i32 786478, i32 0, metadata !453, metadata !"and_reduce", metadata !"and_reduce", metadata !"_ZN11ap_int_baseILi5ELb1ELb1EE10and_reduceEv", metadata !222, i32 2266, metadata !675, i1 false, i1 false, i32 0, i32 0, null, i32 256, i1 false, null, null, i32 0, metadata !101, i32 2266} ; [ DW_TAG_subprogram ]
!675 = metadata !{i32 786453, i32 0, metadata !"", i32 0, i32 0, i64 0, i64 0, i64 0, i32 0, null, metadata !676, i32 0, i32 0} ; [ DW_TAG_subroutine_type ]
!676 = metadata !{metadata !115, metadata !470}
!677 = metadata !{i32 786478, i32 0, metadata !453, metadata !"nand_reduce", metadata !"nand_reduce", metadata !"_ZN11ap_int_baseILi5ELb1ELb1EE11nand_reduceEv", metadata !222, i32 2269, metadata !675, i1 false, i1 false, i32 0, i32 0, null, i32 256, i1 false, null, null, i32 0, metadata !101, i32 2269} ; [ DW_TAG_subprogram ]
!678 = metadata !{i32 786478, i32 0, metadata !453, metadata !"or_reduce", metadata !"or_reduce", metadata !"_ZN11ap_int_baseILi5ELb1ELb1EE9or_reduceEv", metadata !222, i32 2272, metadata !675, i1 false, i1 false, i32 0, i32 0, null, i32 256, i1 false, null, null, i32 0, metadata !101, i32 2272} ; [ DW_TAG_subprogram ]
!679 = metadata !{i32 786478, i32 0, metadata !453, metadata !"nor_reduce", metadata !"nor_reduce", metadata !"_ZN11ap_int_baseILi5ELb1ELb1EE10nor_reduceEv", metadata !222, i32 2275, metadata !675, i1 false, i1 false, i32 0, i32 0, null, i32 256, i1 false, null, null, i32 0, metadata !101, i32 2275} ; [ DW_TAG_subprogram ]
!680 = metadata !{i32 786478, i32 0, metadata !453, metadata !"xor_reduce", metadata !"xor_reduce", metadata !"_ZN11ap_int_baseILi5ELb1ELb1EE10xor_reduceEv", metadata !222, i32 2278, metadata !675, i1 false, i1 false, i32 0, i32 0, null, i32 256, i1 false, null, null, i32 0, metadata !101, i32 2278} ; [ DW_TAG_subprogram ]
!681 = metadata !{i32 786478, i32 0, metadata !453, metadata !"xnor_reduce", metadata !"xnor_reduce", metadata !"_ZN11ap_int_baseILi5ELb1ELb1EE11xnor_reduceEv", metadata !222, i32 2281, metadata !675, i1 false, i1 false, i32 0, i32 0, null, i32 256, i1 false, null, null, i32 0, metadata !101, i32 2281} ; [ DW_TAG_subprogram ]
!682 = metadata !{i32 786478, i32 0, metadata !453, metadata !"and_reduce", metadata !"and_reduce", metadata !"_ZNK11ap_int_baseILi5ELb1ELb1EE10and_reduceEv", metadata !222, i32 2285, metadata !581, i1 false, i1 false, i32 0, i32 0, null, i32 256, i1 false, null, null, i32 0, metadata !101, i32 2285} ; [ DW_TAG_subprogram ]
!683 = metadata !{i32 786478, i32 0, metadata !453, metadata !"nand_reduce", metadata !"nand_reduce", metadata !"_ZNK11ap_int_baseILi5ELb1ELb1EE11nand_reduceEv", metadata !222, i32 2288, metadata !581, i1 false, i1 false, i32 0, i32 0, null, i32 256, i1 false, null, null, i32 0, metadata !101, i32 2288} ; [ DW_TAG_subprogram ]
!684 = metadata !{i32 786478, i32 0, metadata !453, metadata !"or_reduce", metadata !"or_reduce", metadata !"_ZNK11ap_int_baseILi5ELb1ELb1EE9or_reduceEv", metadata !222, i32 2291, metadata !581, i1 false, i1 false, i32 0, i32 0, null, i32 256, i1 false, null, null, i32 0, metadata !101, i32 2291} ; [ DW_TAG_subprogram ]
!685 = metadata !{i32 786478, i32 0, metadata !453, metadata !"nor_reduce", metadata !"nor_reduce", metadata !"_ZNK11ap_int_baseILi5ELb1ELb1EE10nor_reduceEv", metadata !222, i32 2294, metadata !581, i1 false, i1 false, i32 0, i32 0, null, i32 256, i1 false, null, null, i32 0, metadata !101, i32 2294} ; [ DW_TAG_subprogram ]
!686 = metadata !{i32 786478, i32 0, metadata !453, metadata !"xor_reduce", metadata !"xor_reduce", metadata !"_ZNK11ap_int_baseILi5ELb1ELb1EE10xor_reduceEv", metadata !222, i32 2297, metadata !581, i1 false, i1 false, i32 0, i32 0, null, i32 256, i1 false, null, null, i32 0, metadata !101, i32 2297} ; [ DW_TAG_subprogram ]
!687 = metadata !{i32 786478, i32 0, metadata !453, metadata !"xnor_reduce", metadata !"xnor_reduce", metadata !"_ZNK11ap_int_baseILi5ELb1ELb1EE11xnor_reduceEv", metadata !222, i32 2300, metadata !581, i1 false, i1 false, i32 0, i32 0, null, i32 256, i1 false, null, null, i32 0, metadata !101, i32 2300} ; [ DW_TAG_subprogram ]
!688 = metadata !{i32 786478, i32 0, metadata !453, metadata !"to_string", metadata !"to_string", metadata !"_ZNK11ap_int_baseILi5ELb1ELb1EE9to_stringEPci8BaseModeb", metadata !222, i32 2307, metadata !689, i1 false, i1 false, i32 0, i32 0, null, i32 256, i1 false, null, null, i32 0, metadata !101, i32 2307} ; [ DW_TAG_subprogram ]
!689 = metadata !{i32 786453, i32 0, metadata !"", i32 0, i32 0, i64 0, i64 0, i64 0, i32 0, null, metadata !690, i32 0, i32 0} ; [ DW_TAG_subroutine_type ]
!690 = metadata !{null, metadata !579, metadata !691, metadata !236, metadata !692, metadata !115}
!691 = metadata !{i32 786447, null, metadata !"", null, i32 0, i64 32, i64 32, i64 0, i32 0, metadata !146} ; [ DW_TAG_pointer_type ]
!692 = metadata !{i32 786436, null, metadata !"BaseMode", metadata !222, i32 603, i64 5, i64 8, i32 0, i32 0, null, metadata !693, i32 0, i32 0} ; [ DW_TAG_enumeration_type ]
!693 = metadata !{metadata !694, metadata !695, metadata !696, metadata !697}
!694 = metadata !{i32 786472, metadata !"SC_BIN", i64 2} ; [ DW_TAG_enumerator ]
!695 = metadata !{i32 786472, metadata !"SC_OCT", i64 8} ; [ DW_TAG_enumerator ]
!696 = metadata !{i32 786472, metadata !"SC_DEC", i64 10} ; [ DW_TAG_enumerator ]
!697 = metadata !{i32 786472, metadata !"SC_HEX", i64 16} ; [ DW_TAG_enumerator ]
!698 = metadata !{i32 786478, i32 0, metadata !453, metadata !"to_string", metadata !"to_string", metadata !"_ZNK11ap_int_baseILi5ELb1ELb1EE9to_stringE8BaseModeb", metadata !222, i32 2334, metadata !699, i1 false, i1 false, i32 0, i32 0, null, i32 256, i1 false, null, null, i32 0, metadata !101, i32 2334} ; [ DW_TAG_subprogram ]
!699 = metadata !{i32 786453, i32 0, metadata !"", i32 0, i32 0, i64 0, i64 0, i64 0, i32 0, null, metadata !700, i32 0, i32 0} ; [ DW_TAG_subroutine_type ]
!700 = metadata !{metadata !691, metadata !579, metadata !692, metadata !115}
!701 = metadata !{i32 786478, i32 0, metadata !453, metadata !"to_string", metadata !"to_string", metadata !"_ZNK11ap_int_baseILi5ELb1ELb1EE9to_stringEab", metadata !222, i32 2338, metadata !702, i1 false, i1 false, i32 0, i32 0, null, i32 256, i1 false, null, null, i32 0, metadata !101, i32 2338} ; [ DW_TAG_subprogram ]
!702 = metadata !{i32 786453, i32 0, metadata !"", i32 0, i32 0, i64 0, i64 0, i64 0, i32 0, null, metadata !703, i32 0, i32 0} ; [ DW_TAG_subroutine_type ]
!703 = metadata !{metadata !691, metadata !579, metadata !262, metadata !115}
!704 = metadata !{metadata !705, metadata !466, metadata !706}
!705 = metadata !{i32 786480, null, metadata !"_AP_W", metadata !236, i64 5, null, i32 0, i32 0} ; [ DW_TAG_template_value_parameter ]
!706 = metadata !{i32 786480, null, metadata !"_AP_C", metadata !115, i64 1, null, i32 0, i32 0} ; [ DW_TAG_template_value_parameter ]
!707 = metadata !{i32 786478, i32 0, metadata !221, metadata !"range", metadata !"range", metadata !"_ZN11ap_int_baseILi4ELb0ELb1EE5rangeEii", metadata !222, i32 2007, metadata !708, i1 false, i1 false, i32 0, i32 0, null, i32 256, i1 false, null, null, i32 0, metadata !101, i32 2007} ; [ DW_TAG_subprogram ]
!708 = metadata !{i32 786453, i32 0, metadata !"", i32 0, i32 0, i64 0, i64 0, i64 0, i32 0, null, metadata !709, i32 0, i32 0} ; [ DW_TAG_subroutine_type ]
!709 = metadata !{metadata !710, metadata !241, metadata !236, metadata !236}
!710 = metadata !{i32 786434, null, metadata !"ap_range_ref<4, false>", metadata !222, i32 921, i32 0, i32 0, i32 0, i32 4, null, null, i32 0} ; [ DW_TAG_class_type ]
!711 = metadata !{i32 786478, i32 0, metadata !221, metadata !"operator()", metadata !"operator()", metadata !"_ZN11ap_int_baseILi4ELb0ELb1EEclEii", metadata !222, i32 2013, metadata !708, i1 false, i1 false, i32 0, i32 0, null, i32 256, i1 false, null, null, i32 0, metadata !101, i32 2013} ; [ DW_TAG_subprogram ]
!712 = metadata !{i32 786478, i32 0, metadata !221, metadata !"range", metadata !"range", metadata !"_ZNK11ap_int_baseILi4ELb0ELb1EE5rangeEii", metadata !222, i32 2019, metadata !713, i1 false, i1 false, i32 0, i32 0, null, i32 256, i1 false, null, null, i32 0, metadata !101, i32 2019} ; [ DW_TAG_subprogram ]
!713 = metadata !{i32 786453, i32 0, metadata !"", i32 0, i32 0, i64 0, i64 0, i64 0, i32 0, null, metadata !714, i32 0, i32 0} ; [ DW_TAG_subroutine_type ]
!714 = metadata !{metadata !710, metadata !375, metadata !236, metadata !236}
!715 = metadata !{i32 786478, i32 0, metadata !221, metadata !"operator()", metadata !"operator()", metadata !"_ZNK11ap_int_baseILi4ELb0ELb1EEclEii", metadata !222, i32 2025, metadata !713, i1 false, i1 false, i32 0, i32 0, null, i32 256, i1 false, null, null, i32 0, metadata !101, i32 2025} ; [ DW_TAG_subprogram ]
!716 = metadata !{i32 786478, i32 0, metadata !221, metadata !"operator[]", metadata !"operator[]", metadata !"_ZN11ap_int_baseILi4ELb0ELb1EEixEi", metadata !222, i32 2044, metadata !717, i1 false, i1 false, i32 0, i32 0, null, i32 256, i1 false, null, null, i32 0, metadata !101, i32 2044} ; [ DW_TAG_subprogram ]
!717 = metadata !{i32 786453, i32 0, metadata !"", i32 0, i32 0, i64 0, i64 0, i64 0, i32 0, null, metadata !718, i32 0, i32 0} ; [ DW_TAG_subroutine_type ]
!718 = metadata !{metadata !719, metadata !241, metadata !236}
!719 = metadata !{i32 786434, null, metadata !"ap_bit_ref<4, false>", metadata !222, i32 1188, i32 0, i32 0, i32 0, i32 4, null, null, i32 0} ; [ DW_TAG_class_type ]
!720 = metadata !{i32 786478, i32 0, metadata !221, metadata !"operator[]", metadata !"operator[]", metadata !"_ZNK11ap_int_baseILi4ELb0ELb1EEixEi", metadata !222, i32 2058, metadata !426, i1 false, i1 false, i32 0, i32 0, null, i32 256, i1 false, null, null, i32 0, metadata !101, i32 2058} ; [ DW_TAG_subprogram ]
!721 = metadata !{i32 786478, i32 0, metadata !221, metadata !"bit", metadata !"bit", metadata !"_ZN11ap_int_baseILi4ELb0ELb1EE3bitEi", metadata !222, i32 2072, metadata !717, i1 false, i1 false, i32 0, i32 0, null, i32 256, i1 false, null, null, i32 0, metadata !101, i32 2072} ; [ DW_TAG_subprogram ]
!722 = metadata !{i32 786478, i32 0, metadata !221, metadata !"bit", metadata !"bit", metadata !"_ZNK11ap_int_baseILi4ELb0ELb1EE3bitEi", metadata !222, i32 2086, metadata !426, i1 false, i1 false, i32 0, i32 0, null, i32 256, i1 false, null, null, i32 0, metadata !101, i32 2086} ; [ DW_TAG_subprogram ]
!723 = metadata !{i32 786478, i32 0, metadata !221, metadata !"and_reduce", metadata !"and_reduce", metadata !"_ZN11ap_int_baseILi4ELb0ELb1EE10and_reduceEv", metadata !222, i32 2266, metadata !724, i1 false, i1 false, i32 0, i32 0, null, i32 256, i1 false, null, null, i32 0, metadata !101, i32 2266} ; [ DW_TAG_subprogram ]
!724 = metadata !{i32 786453, i32 0, metadata !"", i32 0, i32 0, i64 0, i64 0, i64 0, i32 0, null, metadata !725, i32 0, i32 0} ; [ DW_TAG_subroutine_type ]
!725 = metadata !{metadata !115, metadata !241}
!726 = metadata !{i32 786478, i32 0, metadata !221, metadata !"nand_reduce", metadata !"nand_reduce", metadata !"_ZN11ap_int_baseILi4ELb0ELb1EE11nand_reduceEv", metadata !222, i32 2269, metadata !724, i1 false, i1 false, i32 0, i32 0, null, i32 256, i1 false, null, null, i32 0, metadata !101, i32 2269} ; [ DW_TAG_subprogram ]
!727 = metadata !{i32 786478, i32 0, metadata !221, metadata !"or_reduce", metadata !"or_reduce", metadata !"_ZN11ap_int_baseILi4ELb0ELb1EE9or_reduceEv", metadata !222, i32 2272, metadata !724, i1 false, i1 false, i32 0, i32 0, null, i32 256, i1 false, null, null, i32 0, metadata !101, i32 2272} ; [ DW_TAG_subprogram ]
!728 = metadata !{i32 786478, i32 0, metadata !221, metadata !"nor_reduce", metadata !"nor_reduce", metadata !"_ZN11ap_int_baseILi4ELb0ELb1EE10nor_reduceEv", metadata !222, i32 2275, metadata !724, i1 false, i1 false, i32 0, i32 0, null, i32 256, i1 false, null, null, i32 0, metadata !101, i32 2275} ; [ DW_TAG_subprogram ]
!729 = metadata !{i32 786478, i32 0, metadata !221, metadata !"xor_reduce", metadata !"xor_reduce", metadata !"_ZN11ap_int_baseILi4ELb0ELb1EE10xor_reduceEv", metadata !222, i32 2278, metadata !724, i1 false, i1 false, i32 0, i32 0, null, i32 256, i1 false, null, null, i32 0, metadata !101, i32 2278} ; [ DW_TAG_subprogram ]
!730 = metadata !{i32 786478, i32 0, metadata !221, metadata !"xnor_reduce", metadata !"xnor_reduce", metadata !"_ZN11ap_int_baseILi4ELb0ELb1EE11xnor_reduceEv", metadata !222, i32 2281, metadata !724, i1 false, i1 false, i32 0, i32 0, null, i32 256, i1 false, null, null, i32 0, metadata !101, i32 2281} ; [ DW_TAG_subprogram ]
!731 = metadata !{i32 786478, i32 0, metadata !221, metadata !"and_reduce", metadata !"and_reduce", metadata !"_ZNK11ap_int_baseILi4ELb0ELb1EE10and_reduceEv", metadata !222, i32 2285, metadata !377, i1 false, i1 false, i32 0, i32 0, null, i32 256, i1 false, null, null, i32 0, metadata !101, i32 2285} ; [ DW_TAG_subprogram ]
!732 = metadata !{i32 786478, i32 0, metadata !221, metadata !"nand_reduce", metadata !"nand_reduce", metadata !"_ZNK11ap_int_baseILi4ELb0ELb1EE11nand_reduceEv", metadata !222, i32 2288, metadata !377, i1 false, i1 false, i32 0, i32 0, null, i32 256, i1 false, null, null, i32 0, metadata !101, i32 2288} ; [ DW_TAG_subprogram ]
!733 = metadata !{i32 786478, i32 0, metadata !221, metadata !"or_reduce", metadata !"or_reduce", metadata !"_ZNK11ap_int_baseILi4ELb0ELb1EE9or_reduceEv", metadata !222, i32 2291, metadata !377, i1 false, i1 false, i32 0, i32 0, null, i32 256, i1 false, null, null, i32 0, metadata !101, i32 2291} ; [ DW_TAG_subprogram ]
!734 = metadata !{i32 786478, i32 0, metadata !221, metadata !"nor_reduce", metadata !"nor_reduce", metadata !"_ZNK11ap_int_baseILi4ELb0ELb1EE10nor_reduceEv", metadata !222, i32 2294, metadata !377, i1 false, i1 false, i32 0, i32 0, null, i32 256, i1 false, null, null, i32 0, metadata !101, i32 2294} ; [ DW_TAG_subprogram ]
!735 = metadata !{i32 786478, i32 0, metadata !221, metadata !"xor_reduce", metadata !"xor_reduce", metadata !"_ZNK11ap_int_baseILi4ELb0ELb1EE10xor_reduceEv", metadata !222, i32 2297, metadata !377, i1 false, i1 false, i32 0, i32 0, null, i32 256, i1 false, null, null, i32 0, metadata !101, i32 2297} ; [ DW_TAG_subprogram ]
!736 = metadata !{i32 786478, i32 0, metadata !221, metadata !"xnor_reduce", metadata !"xnor_reduce", metadata !"_ZNK11ap_int_baseILi4ELb0ELb1EE11xnor_reduceEv", metadata !222, i32 2300, metadata !377, i1 false, i1 false, i32 0, i32 0, null, i32 256, i1 false, null, null, i32 0, metadata !101, i32 2300} ; [ DW_TAG_subprogram ]
!737 = metadata !{i32 786478, i32 0, metadata !221, metadata !"to_string", metadata !"to_string", metadata !"_ZNK11ap_int_baseILi4ELb0ELb1EE9to_stringEPci8BaseModeb", metadata !222, i32 2307, metadata !738, i1 false, i1 false, i32 0, i32 0, null, i32 256, i1 false, null, null, i32 0, metadata !101, i32 2307} ; [ DW_TAG_subprogram ]
!738 = metadata !{i32 786453, i32 0, metadata !"", i32 0, i32 0, i64 0, i64 0, i64 0, i32 0, null, metadata !739, i32 0, i32 0} ; [ DW_TAG_subroutine_type ]
!739 = metadata !{null, metadata !375, metadata !691, metadata !236, metadata !692, metadata !115}
!740 = metadata !{i32 786478, i32 0, metadata !221, metadata !"to_string", metadata !"to_string", metadata !"_ZNK11ap_int_baseILi4ELb0ELb1EE9to_stringE8BaseModeb", metadata !222, i32 2334, metadata !741, i1 false, i1 false, i32 0, i32 0, null, i32 256, i1 false, null, null, i32 0, metadata !101, i32 2334} ; [ DW_TAG_subprogram ]
!741 = metadata !{i32 786453, i32 0, metadata !"", i32 0, i32 0, i64 0, i64 0, i64 0, i32 0, null, metadata !742, i32 0, i32 0} ; [ DW_TAG_subroutine_type ]
!742 = metadata !{metadata !691, metadata !375, metadata !692, metadata !115}
!743 = metadata !{i32 786478, i32 0, metadata !221, metadata !"to_string", metadata !"to_string", metadata !"_ZNK11ap_int_baseILi4ELb0ELb1EE9to_stringEab", metadata !222, i32 2338, metadata !744, i1 false, i1 false, i32 0, i32 0, null, i32 256, i1 false, null, null, i32 0, metadata !101, i32 2338} ; [ DW_TAG_subprogram ]
!744 = metadata !{i32 786453, i32 0, metadata !"", i32 0, i32 0, i64 0, i64 0, i64 0, i32 0, null, metadata !745, i32 0, i32 0} ; [ DW_TAG_subroutine_type ]
!745 = metadata !{metadata !691, metadata !375, metadata !262, metadata !115}
!746 = metadata !{i32 786478, i32 0, metadata !221, metadata !"~ap_int_base", metadata !"~ap_int_base", metadata !"", metadata !222, i32 1388, metadata !239, i1 false, i1 false, i32 0, i32 0, null, i32 320, i1 false, null, null, i32 0, metadata !101, i32 1388} ; [ DW_TAG_subprogram ]
!747 = metadata !{metadata !748, metadata !237, metadata !706}
!748 = metadata !{i32 786480, null, metadata !"_AP_W", metadata !236, i64 4, null, i32 0, i32 0} ; [ DW_TAG_template_value_parameter ]
!749 = metadata !{i32 786478, i32 0, metadata !215, metadata !"sc_uint", metadata !"sc_uint", metadata !"", metadata !218, i32 272, metadata !750, i1 false, i1 false, i32 0, i32 0, null, i32 256, i1 false, null, null, i32 0, metadata !101, i32 272} ; [ DW_TAG_subprogram ]
!750 = metadata !{i32 786453, i32 0, metadata !"", i32 0, i32 0, i64 0, i64 0, i64 0, i32 0, null, metadata !751, i32 0, i32 0} ; [ DW_TAG_subroutine_type ]
!751 = metadata !{null, metadata !752}
!752 = metadata !{i32 786447, i32 0, metadata !"", i32 0, i32 0, i64 32, i64 32, i64 0, i32 64, metadata !215} ; [ DW_TAG_pointer_type ]
!753 = metadata !{i32 786478, i32 0, metadata !215, metadata !"sc_uint", metadata !"sc_uint", metadata !"", metadata !218, i32 278, metadata !754, i1 false, i1 false, i32 0, i32 0, null, i32 256, i1 false, null, null, i32 0, metadata !101, i32 278} ; [ DW_TAG_subprogram ]
!754 = metadata !{i32 786453, i32 0, metadata !"", i32 0, i32 0, i64 0, i64 0, i64 0, i32 0, null, metadata !755, i32 0, i32 0} ; [ DW_TAG_subroutine_type ]
!755 = metadata !{null, metadata !752, metadata !756}
!756 = metadata !{i32 786448, null, null, null, i32 0, i64 0, i64 0, i64 0, i32 0, metadata !757} ; [ DW_TAG_reference_type ]
!757 = metadata !{i32 786470, null, metadata !"", null, i32 0, i64 0, i64 0, i64 0, i32 0, metadata !758} ; [ DW_TAG_const_type ]
!758 = metadata !{i32 786454, metadata !215, metadata !"sc_uint_base", metadata !218, i32 270, i64 0, i64 0, i64 0, i32 0, metadata !221} ; [ DW_TAG_typedef ]
!759 = metadata !{i32 786478, i32 0, metadata !215, metadata !"sc_uint", metadata !"sc_uint", metadata !"", metadata !218, i32 279, metadata !760, i1 false, i1 false, i32 0, i32 0, null, i32 256, i1 false, null, null, i32 0, metadata !101, i32 279} ; [ DW_TAG_subprogram ]
!760 = metadata !{i32 786453, i32 0, metadata !"", i32 0, i32 0, i64 0, i64 0, i64 0, i32 0, null, metadata !761, i32 0, i32 0} ; [ DW_TAG_subroutine_type ]
!761 = metadata !{null, metadata !752, metadata !762}
!762 = metadata !{i32 786448, null, null, null, i32 0, i64 0, i64 0, i64 0, i32 0, metadata !763} ; [ DW_TAG_reference_type ]
!763 = metadata !{i32 786485, null, metadata !"", null, i32 0, i64 0, i64 0, i64 0, i32 0, metadata !758} ; [ DW_TAG_volatile_type ]
!764 = metadata !{i32 786478, i32 0, metadata !215, metadata !"sc_uint<4, false>", metadata !"sc_uint<4, false>", metadata !"", metadata !218, i32 284, metadata !765, i1 false, i1 false, i32 0, i32 0, null, i32 256, i1 false, null, metadata !767, i32 0, metadata !101, i32 284} ; [ DW_TAG_subprogram ]
!765 = metadata !{i32 786453, i32 0, metadata !"", i32 0, i32 0, i64 0, i64 0, i64 0, i32 0, null, metadata !766, i32 0, i32 0} ; [ DW_TAG_subroutine_type ]
!766 = metadata !{null, metadata !752, metadata !245}
!767 = metadata !{metadata !768, metadata !769}
!768 = metadata !{i32 786480, null, metadata !"_SC_W2", metadata !236, i64 4, null, i32 0, i32 0} ; [ DW_TAG_template_value_parameter ]
!769 = metadata !{i32 786480, null, metadata !"_SC_S2", metadata !115, i64 0, null, i32 0, i32 0} ; [ DW_TAG_template_value_parameter ]
!770 = metadata !{i32 786478, i32 0, metadata !215, metadata !"sc_uint<false>", metadata !"sc_uint<false>", metadata !"", metadata !218, i32 287, metadata !771, i1 false, i1 false, i32 0, i32 0, null, i32 256, i1 false, null, metadata !773, i32 0, metadata !101, i32 287} ; [ DW_TAG_subprogram ]
!771 = metadata !{i32 786453, i32 0, metadata !"", i32 0, i32 0, i64 0, i64 0, i64 0, i32 0, null, metadata !772, i32 0, i32 0} ; [ DW_TAG_subroutine_type ]
!772 = metadata !{null, metadata !752, metadata !333}
!773 = metadata !{metadata !769}
!774 = metadata !{i32 786478, i32 0, metadata !215, metadata !"sc_uint<4>", metadata !"sc_uint<4>", metadata !"", metadata !218, i32 309, metadata !775, i1 false, i1 false, i32 0, i32 0, null, i32 256, i1 false, null, metadata !779, i32 0, metadata !101, i32 309} ; [ DW_TAG_subprogram ]
!775 = metadata !{i32 786453, i32 0, metadata !"", i32 0, i32 0, i64 0, i64 0, i64 0, i32 0, null, metadata !776, i32 0, i32 0} ; [ DW_TAG_subroutine_type ]
!776 = metadata !{null, metadata !752, metadata !777}
!777 = metadata !{i32 786448, null, null, null, i32 0, i64 0, i64 0, i64 0, i32 0, metadata !778} ; [ DW_TAG_reference_type ]
!778 = metadata !{i32 786470, null, metadata !"", null, i32 0, i64 0, i64 0, i64 0, i32 0, metadata !215} ; [ DW_TAG_const_type ]
!779 = metadata !{metadata !768}
!780 = metadata !{i32 786478, i32 0, metadata !215, metadata !"sc_uint", metadata !"sc_uint", metadata !"", metadata !218, i32 338, metadata !781, i1 false, i1 false, i32 0, i32 0, null, i32 256, i1 false, null, null, i32 0, metadata !101, i32 338} ; [ DW_TAG_subprogram ]
!781 = metadata !{i32 786453, i32 0, metadata !"", i32 0, i32 0, i64 0, i64 0, i64 0, i32 0, null, metadata !782, i32 0, i32 0} ; [ DW_TAG_subroutine_type ]
!782 = metadata !{null, metadata !752, metadata !115}
!783 = metadata !{i32 786478, i32 0, metadata !215, metadata !"sc_uint", metadata !"sc_uint", metadata !"", metadata !218, i32 339, metadata !784, i1 false, i1 false, i32 0, i32 0, null, i32 256, i1 false, null, null, i32 0, metadata !101, i32 339} ; [ DW_TAG_subprogram ]
!784 = metadata !{i32 786453, i32 0, metadata !"", i32 0, i32 0, i64 0, i64 0, i64 0, i32 0, null, metadata !785, i32 0, i32 0} ; [ DW_TAG_subroutine_type ]
!785 = metadata !{null, metadata !752, metadata !262}
!786 = metadata !{i32 786478, i32 0, metadata !215, metadata !"sc_uint", metadata !"sc_uint", metadata !"", metadata !218, i32 340, metadata !787, i1 false, i1 false, i32 0, i32 0, null, i32 256, i1 false, null, null, i32 0, metadata !101, i32 340} ; [ DW_TAG_subprogram ]
!787 = metadata !{i32 786453, i32 0, metadata !"", i32 0, i32 0, i64 0, i64 0, i64 0, i32 0, null, metadata !788, i32 0, i32 0} ; [ DW_TAG_subroutine_type ]
!788 = metadata !{null, metadata !752, metadata !266}
!789 = metadata !{i32 786478, i32 0, metadata !215, metadata !"sc_uint", metadata !"sc_uint", metadata !"", metadata !218, i32 341, metadata !790, i1 false, i1 false, i32 0, i32 0, null, i32 256, i1 false, null, null, i32 0, metadata !101, i32 341} ; [ DW_TAG_subprogram ]
!790 = metadata !{i32 786453, i32 0, metadata !"", i32 0, i32 0, i64 0, i64 0, i64 0, i32 0, null, metadata !791, i32 0, i32 0} ; [ DW_TAG_subroutine_type ]
!791 = metadata !{null, metadata !752, metadata !270}
!792 = metadata !{i32 786478, i32 0, metadata !215, metadata !"sc_uint", metadata !"sc_uint", metadata !"", metadata !218, i32 342, metadata !793, i1 false, i1 false, i32 0, i32 0, null, i32 256, i1 false, null, null, i32 0, metadata !101, i32 342} ; [ DW_TAG_subprogram ]
!793 = metadata !{i32 786453, i32 0, metadata !"", i32 0, i32 0, i64 0, i64 0, i64 0, i32 0, null, metadata !794, i32 0, i32 0} ; [ DW_TAG_subroutine_type ]
!794 = metadata !{null, metadata !752, metadata !274}
!795 = metadata !{i32 786478, i32 0, metadata !215, metadata !"sc_uint", metadata !"sc_uint", metadata !"", metadata !218, i32 343, metadata !796, i1 false, i1 false, i32 0, i32 0, null, i32 256, i1 false, null, null, i32 0, metadata !101, i32 343} ; [ DW_TAG_subprogram ]
!796 = metadata !{i32 786453, i32 0, metadata !"", i32 0, i32 0, i64 0, i64 0, i64 0, i32 0, null, metadata !797, i32 0, i32 0} ; [ DW_TAG_subroutine_type ]
!797 = metadata !{null, metadata !752, metadata !236}
!798 = metadata !{i32 786478, i32 0, metadata !215, metadata !"sc_uint", metadata !"sc_uint", metadata !"", metadata !218, i32 344, metadata !799, i1 false, i1 false, i32 0, i32 0, null, i32 256, i1 false, null, null, i32 0, metadata !101, i32 344} ; [ DW_TAG_subprogram ]
!799 = metadata !{i32 786453, i32 0, metadata !"", i32 0, i32 0, i64 0, i64 0, i64 0, i32 0, null, metadata !800, i32 0, i32 0} ; [ DW_TAG_subroutine_type ]
!800 = metadata !{null, metadata !752, metadata !281}
!801 = metadata !{i32 786478, i32 0, metadata !215, metadata !"sc_uint", metadata !"sc_uint", metadata !"", metadata !218, i32 345, metadata !802, i1 false, i1 false, i32 0, i32 0, null, i32 256, i1 false, null, null, i32 0, metadata !101, i32 345} ; [ DW_TAG_subprogram ]
!802 = metadata !{i32 786453, i32 0, metadata !"", i32 0, i32 0, i64 0, i64 0, i64 0, i32 0, null, metadata !803, i32 0, i32 0} ; [ DW_TAG_subroutine_type ]
!803 = metadata !{null, metadata !752, metadata !285}
!804 = metadata !{i32 786478, i32 0, metadata !215, metadata !"sc_uint", metadata !"sc_uint", metadata !"", metadata !218, i32 346, metadata !805, i1 false, i1 false, i32 0, i32 0, null, i32 256, i1 false, null, null, i32 0, metadata !101, i32 346} ; [ DW_TAG_subprogram ]
!805 = metadata !{i32 786453, i32 0, metadata !"", i32 0, i32 0, i64 0, i64 0, i64 0, i32 0, null, metadata !806, i32 0, i32 0} ; [ DW_TAG_subroutine_type ]
!806 = metadata !{null, metadata !752, metadata !289}
!807 = metadata !{i32 786478, i32 0, metadata !215, metadata !"sc_uint", metadata !"sc_uint", metadata !"", metadata !218, i32 347, metadata !808, i1 false, i1 false, i32 0, i32 0, null, i32 256, i1 false, null, null, i32 0, metadata !101, i32 347} ; [ DW_TAG_subprogram ]
!808 = metadata !{i32 786453, i32 0, metadata !"", i32 0, i32 0, i64 0, i64 0, i64 0, i32 0, null, metadata !809, i32 0, i32 0} ; [ DW_TAG_subroutine_type ]
!809 = metadata !{null, metadata !752, metadata !293}
!810 = metadata !{i32 786478, i32 0, metadata !215, metadata !"sc_uint", metadata !"sc_uint", metadata !"", metadata !218, i32 348, metadata !811, i1 false, i1 false, i32 0, i32 0, null, i32 256, i1 false, null, null, i32 0, metadata !101, i32 348} ; [ DW_TAG_subprogram ]
!811 = metadata !{i32 786453, i32 0, metadata !"", i32 0, i32 0, i64 0, i64 0, i64 0, i32 0, null, metadata !812, i32 0, i32 0} ; [ DW_TAG_subroutine_type ]
!812 = metadata !{null, metadata !752, metadata !298}
!813 = metadata !{i32 786478, i32 0, metadata !215, metadata !"sc_uint", metadata !"sc_uint", metadata !"", metadata !218, i32 349, metadata !814, i1 false, i1 false, i32 0, i32 0, null, i32 256, i1 false, null, null, i32 0, metadata !101, i32 349} ; [ DW_TAG_subprogram ]
!814 = metadata !{i32 786453, i32 0, metadata !"", i32 0, i32 0, i64 0, i64 0, i64 0, i32 0, null, metadata !815, i32 0, i32 0} ; [ DW_TAG_subroutine_type ]
!815 = metadata !{null, metadata !752, metadata !312}
!816 = metadata !{i32 786478, i32 0, metadata !215, metadata !"sc_uint", metadata !"sc_uint", metadata !"", metadata !218, i32 350, metadata !817, i1 false, i1 false, i32 0, i32 0, null, i32 256, i1 false, null, null, i32 0, metadata !101, i32 350} ; [ DW_TAG_subprogram ]
!817 = metadata !{i32 786453, i32 0, metadata !"", i32 0, i32 0, i64 0, i64 0, i64 0, i32 0, null, metadata !818, i32 0, i32 0} ; [ DW_TAG_subroutine_type ]
!818 = metadata !{null, metadata !752, metadata !144}
!819 = metadata !{i32 786478, i32 0, metadata !215, metadata !"operator=", metadata !"operator=", metadata !"_ZNV7_ap_sc_5sc_dt7sc_uintILi4EEaSERKS2_", metadata !218, i32 364, metadata !820, i1 false, i1 false, i32 0, i32 0, null, i32 256, i1 false, null, null, i32 0, metadata !101, i32 364} ; [ DW_TAG_subprogram ]
!820 = metadata !{i32 786453, i32 0, metadata !"", i32 0, i32 0, i64 0, i64 0, i64 0, i32 0, null, metadata !821, i32 0, i32 0} ; [ DW_TAG_subroutine_type ]
!821 = metadata !{null, metadata !822, metadata !777}
!822 = metadata !{i32 786447, i32 0, metadata !"", i32 0, i32 0, i64 32, i64 32, i64 0, i32 64, metadata !214} ; [ DW_TAG_pointer_type ]
!823 = metadata !{i32 786478, i32 0, metadata !215, metadata !"operator=", metadata !"operator=", metadata !"_ZNV7_ap_sc_5sc_dt7sc_uintILi4EEaSERVKS2_", metadata !218, i32 367, metadata !824, i1 false, i1 false, i32 0, i32 0, null, i32 256, i1 false, null, null, i32 0, metadata !101, i32 367} ; [ DW_TAG_subprogram ]
!824 = metadata !{i32 786453, i32 0, metadata !"", i32 0, i32 0, i64 0, i64 0, i64 0, i32 0, null, metadata !825, i32 0, i32 0} ; [ DW_TAG_subroutine_type ]
!825 = metadata !{null, metadata !822, metadata !826}
!826 = metadata !{i32 786448, null, null, null, i32 0, i64 0, i64 0, i64 0, i32 0, metadata !827} ; [ DW_TAG_reference_type ]
!827 = metadata !{i32 786470, null, metadata !"", null, i32 0, i64 0, i64 0, i64 0, i32 0, metadata !214} ; [ DW_TAG_const_type ]
!828 = metadata !{i32 786478, i32 0, metadata !215, metadata !"operator=", metadata !"operator=", metadata !"_ZN7_ap_sc_5sc_dt7sc_uintILi4EEaSERVKS2_", metadata !218, i32 373, metadata !829, i1 false, i1 false, i32 0, i32 0, null, i32 256, i1 false, null, null, i32 0, metadata !101, i32 373} ; [ DW_TAG_subprogram ]
!829 = metadata !{i32 786453, i32 0, metadata !"", i32 0, i32 0, i64 0, i64 0, i64 0, i32 0, null, metadata !830, i32 0, i32 0} ; [ DW_TAG_subroutine_type ]
!830 = metadata !{metadata !831, metadata !752, metadata !826}
!831 = metadata !{i32 786448, null, null, null, i32 0, i64 0, i64 0, i64 0, i32 0, metadata !215} ; [ DW_TAG_reference_type ]
!832 = metadata !{i32 786478, i32 0, metadata !215, metadata !"operator=", metadata !"operator=", metadata !"_ZN7_ap_sc_5sc_dt7sc_uintILi4EEaSERKS2_", metadata !218, i32 377, metadata !833, i1 false, i1 false, i32 0, i32 0, null, i32 256, i1 false, null, null, i32 0, metadata !101, i32 377} ; [ DW_TAG_subprogram ]
!833 = metadata !{i32 786453, i32 0, metadata !"", i32 0, i32 0, i64 0, i64 0, i64 0, i32 0, null, metadata !834, i32 0, i32 0} ; [ DW_TAG_subroutine_type ]
!834 = metadata !{metadata !831, metadata !752, metadata !777}
!835 = metadata !{i32 786478, i32 0, metadata !215, metadata !"~sc_uint", metadata !"~sc_uint", metadata !"", metadata !218, i32 269, metadata !750, i1 false, i1 false, i32 0, i32 0, null, i32 320, i1 false, null, null, i32 0, metadata !101, i32 269} ; [ DW_TAG_subprogram ]
!836 = metadata !{metadata !837}
!837 = metadata !{i32 786480, null, metadata !"_SC_W", metadata !236, i64 4, null, i32 0, i32 0} ; [ DW_TAG_template_value_parameter ]
!838 = metadata !{i32 786478, i32 0, metadata !210, metadata !"sc_signal_in_if", metadata !"sc_signal_in_if", metadata !"", metadata !89, i32 176, metadata !839, i1 false, i1 false, i32 0, i32 0, null, i32 256, i1 false, null, null, i32 0, metadata !101, i32 176} ; [ DW_TAG_subprogram ]
!839 = metadata !{i32 786453, i32 0, metadata !"", i32 0, i32 0, i64 0, i64 0, i64 0, i32 0, null, metadata !840, i32 0, i32 0} ; [ DW_TAG_subroutine_type ]
!840 = metadata !{null, metadata !841}
!841 = metadata !{i32 786447, i32 0, metadata !"", i32 0, i32 0, i64 32, i64 32, i64 0, i32 64, metadata !210} ; [ DW_TAG_pointer_type ]
!842 = metadata !{i32 786478, i32 0, metadata !210, metadata !"read", metadata !"read", metadata !"_ZN7_ap_sc_7sc_core15sc_signal_in_ifINS_5sc_dt7sc_uintILi4EEEE4readEv", metadata !89, i32 180, metadata !843, i1 false, i1 false, i32 0, i32 0, null, i32 256, i1 false, null, null, i32 0, metadata !101, i32 180} ; [ DW_TAG_subprogram ]
!843 = metadata !{i32 786453, i32 0, metadata !"", i32 0, i32 0, i64 0, i64 0, i64 0, i32 0, null, metadata !844, i32 0, i32 0} ; [ DW_TAG_subroutine_type ]
!844 = metadata !{metadata !215, metadata !841}
!845 = metadata !{i32 786478, i32 0, metadata !210, metadata !"read", metadata !"read", metadata !"_ZNK7_ap_sc_7sc_core15sc_signal_in_ifINS_5sc_dt7sc_uintILi4EEEE4readEv", metadata !89, i32 181, metadata !846, i1 false, i1 false, i32 0, i32 0, null, i32 256, i1 false, null, null, i32 0, metadata !101, i32 181} ; [ DW_TAG_subprogram ]
!846 = metadata !{i32 786453, i32 0, metadata !"", i32 0, i32 0, i64 0, i64 0, i64 0, i32 0, null, metadata !847, i32 0, i32 0} ; [ DW_TAG_subroutine_type ]
!847 = metadata !{metadata !215, metadata !848}
!848 = metadata !{i32 786447, i32 0, metadata !"", i32 0, i32 0, i64 32, i64 32, i64 0, i32 64, metadata !849} ; [ DW_TAG_pointer_type ]
!849 = metadata !{i32 786470, null, metadata !"", null, i32 0, i64 0, i64 0, i64 0, i32 0, metadata !210} ; [ DW_TAG_const_type ]
!850 = metadata !{i32 786478, i32 0, metadata !210, metadata !"operator sc_uint", metadata !"operator sc_uint", metadata !"_ZN7_ap_sc_7sc_core15sc_signal_in_ifINS_5sc_dt7sc_uintILi4EEEEcvKS4_Ev", metadata !89, i32 187, metadata !851, i1 false, i1 false, i32 0, i32 0, null, i32 256, i1 false, null, null, i32 0, metadata !101, i32 187} ; [ DW_TAG_subprogram ]
!851 = metadata !{i32 786453, i32 0, metadata !"", i32 0, i32 0, i64 0, i64 0, i64 0, i32 0, null, metadata !852, i32 0, i32 0} ; [ DW_TAG_subroutine_type ]
!852 = metadata !{metadata !778, metadata !841}
!853 = metadata !{i32 786478, i32 0, metadata !210, metadata !"operator sc_uint", metadata !"operator sc_uint", metadata !"_ZNK7_ap_sc_7sc_core15sc_signal_in_ifINS_5sc_dt7sc_uintILi4EEEEcvKS4_Ev", metadata !89, i32 188, metadata !854, i1 false, i1 false, i32 0, i32 0, null, i32 256, i1 false, null, null, i32 0, metadata !101, i32 188} ; [ DW_TAG_subprogram ]
!854 = metadata !{i32 786453, i32 0, metadata !"", i32 0, i32 0, i64 0, i64 0, i64 0, i32 0, null, metadata !855, i32 0, i32 0} ; [ DW_TAG_subroutine_type ]
!855 = metadata !{metadata !778, metadata !848}
!856 = metadata !{metadata !857}
!857 = metadata !{i32 786479, null, metadata !"T", metadata !215, null, i32 0, i32 0} ; [ DW_TAG_template_type_parameter ]
!858 = metadata !{i32 786478, i32 0, metadata !206, metadata !"sc_port_b", metadata !"sc_port_b", metadata !"", metadata !89, i32 285, metadata !859, i1 false, i1 false, i32 0, i32 0, null, i32 256, i1 false, null, null, i32 0, metadata !101, i32 285} ; [ DW_TAG_subprogram ]
!859 = metadata !{i32 786453, i32 0, metadata !"", i32 0, i32 0, i64 0, i64 0, i64 0, i32 0, null, metadata !860, i32 0, i32 0} ; [ DW_TAG_subroutine_type ]
!860 = metadata !{null, metadata !861}
!861 = metadata !{i32 786447, i32 0, metadata !"", i32 0, i32 0, i64 32, i64 32, i64 0, i32 64, metadata !206} ; [ DW_TAG_pointer_type ]
!862 = metadata !{i32 786478, i32 0, metadata !206, metadata !"sc_port_b", metadata !"sc_port_b", metadata !"", metadata !89, i32 286, metadata !863, i1 false, i1 false, i32 0, i32 0, null, i32 384, i1 false, null, null, i32 0, metadata !101, i32 286} ; [ DW_TAG_subprogram ]
!863 = metadata !{i32 786453, i32 0, metadata !"", i32 0, i32 0, i64 0, i64 0, i64 0, i32 0, null, metadata !864, i32 0, i32 0} ; [ DW_TAG_subroutine_type ]
!864 = metadata !{null, metadata !861, metadata !144}
!865 = metadata !{i32 786478, i32 0, metadata !206, metadata !"bind", metadata !"bind", metadata !"_ZN7_ap_sc_7sc_core9sc_port_bINS0_15sc_signal_in_ifINS_5sc_dt7sc_uintILi4EEEEEE4bindERS6_", metadata !89, i32 290, metadata !866, i1 false, i1 false, i32 0, i32 0, null, i32 256, i1 false, null, null, i32 0, metadata !101, i32 290} ; [ DW_TAG_subprogram ]
!866 = metadata !{i32 786453, i32 0, metadata !"", i32 0, i32 0, i64 0, i64 0, i64 0, i32 0, null, metadata !867, i32 0, i32 0} ; [ DW_TAG_subroutine_type ]
!867 = metadata !{null, metadata !861, metadata !868}
!868 = metadata !{i32 786448, null, null, null, i32 0, i64 0, i64 0, i64 0, i32 0, metadata !210} ; [ DW_TAG_reference_type ]
!869 = metadata !{i32 786478, i32 0, metadata !206, metadata !"operator()", metadata !"operator()", metadata !"_ZN7_ap_sc_7sc_core9sc_port_bINS0_15sc_signal_in_ifINS_5sc_dt7sc_uintILi4EEEEEEclERS6_", metadata !89, i32 293, metadata !866, i1 false, i1 false, i32 0, i32 0, null, i32 256, i1 false, null, null, i32 0, metadata !101, i32 293} ; [ DW_TAG_subprogram ]
!870 = metadata !{i32 786478, i32 0, metadata !206, metadata !"bind", metadata !"bind", metadata !"_ZN7_ap_sc_7sc_core9sc_port_bINS0_15sc_signal_in_ifINS_5sc_dt7sc_uintILi4EEEEEE4bindERNS0_15sc_prim_channelE", metadata !89, i32 294, metadata !871, i1 false, i1 false, i32 0, i32 0, null, i32 256, i1 false, null, null, i32 0, metadata !101, i32 294} ; [ DW_TAG_subprogram ]
!871 = metadata !{i32 786453, i32 0, metadata !"", i32 0, i32 0, i64 0, i64 0, i64 0, i32 0, null, metadata !872, i32 0, i32 0} ; [ DW_TAG_subroutine_type ]
!872 = metadata !{null, metadata !861, metadata !155}
!873 = metadata !{i32 786478, i32 0, metadata !206, metadata !"operator()", metadata !"operator()", metadata !"_ZN7_ap_sc_7sc_core9sc_port_bINS0_15sc_signal_in_ifINS_5sc_dt7sc_uintILi4EEEEEEclERNS0_15sc_prim_channelE", metadata !89, i32 297, metadata !871, i1 false, i1 false, i32 0, i32 0, null, i32 256, i1 false, null, null, i32 0, metadata !101, i32 297} ; [ DW_TAG_subprogram ]
!874 = metadata !{i32 786478, i32 0, metadata !206, metadata !"bind", metadata !"bind", metadata !"_ZN7_ap_sc_7sc_core9sc_port_bINS0_15sc_signal_in_ifINS_5sc_dt7sc_uintILi4EEEEEE4bindERS7_", metadata !89, i32 298, metadata !875, i1 false, i1 false, i32 0, i32 0, null, i32 256, i1 false, null, null, i32 0, metadata !101, i32 298} ; [ DW_TAG_subprogram ]
!875 = metadata !{i32 786453, i32 0, metadata !"", i32 0, i32 0, i64 0, i64 0, i64 0, i32 0, null, metadata !876, i32 0, i32 0} ; [ DW_TAG_subroutine_type ]
!876 = metadata !{null, metadata !861, metadata !877}
!877 = metadata !{i32 786448, null, null, null, i32 0, i64 0, i64 0, i64 0, i32 0, metadata !206} ; [ DW_TAG_reference_type ]
!878 = metadata !{i32 786478, i32 0, metadata !206, metadata !"operator()", metadata !"operator()", metadata !"_ZN7_ap_sc_7sc_core9sc_port_bINS0_15sc_signal_in_ifINS_5sc_dt7sc_uintILi4EEEEEEclERS7_", metadata !89, i32 299, metadata !875, i1 false, i1 false, i32 0, i32 0, null, i32 256, i1 false, null, null, i32 0, metadata !101, i32 299} ; [ DW_TAG_subprogram ]
!879 = metadata !{i32 786478, i32 0, metadata !206, metadata !"operator->", metadata !"operator->", metadata !"_ZN7_ap_sc_7sc_core9sc_port_bINS0_15sc_signal_in_ifINS_5sc_dt7sc_uintILi4EEEEEEptEv", metadata !89, i32 301, metadata !880, i1 false, i1 false, i32 0, i32 0, null, i32 256, i1 false, null, null, i32 0, metadata !101, i32 301} ; [ DW_TAG_subprogram ]
!880 = metadata !{i32 786453, i32 0, metadata !"", i32 0, i32 0, i64 0, i64 0, i64 0, i32 0, null, metadata !881, i32 0, i32 0} ; [ DW_TAG_subroutine_type ]
!881 = metadata !{metadata !882, metadata !861}
!882 = metadata !{i32 786447, null, metadata !"", null, i32 0, i64 32, i64 32, i64 0, i32 0, metadata !210} ; [ DW_TAG_pointer_type ]
!883 = metadata !{metadata !884}
!884 = metadata !{i32 786479, null, metadata !"IF", metadata !210, null, i32 0, i32 0} ; [ DW_TAG_template_type_parameter ]
!885 = metadata !{i32 786478, i32 0, metadata !203, metadata !"sc_in", metadata !"sc_in", metadata !"", metadata !89, i32 347, metadata !886, i1 false, i1 false, i32 0, i32 0, null, i32 256, i1 false, null, null, i32 0, metadata !101, i32 347} ; [ DW_TAG_subprogram ]
!886 = metadata !{i32 786453, i32 0, metadata !"", i32 0, i32 0, i64 0, i64 0, i64 0, i32 0, null, metadata !887, i32 0, i32 0} ; [ DW_TAG_subroutine_type ]
!887 = metadata !{null, metadata !888}
!888 = metadata !{i32 786447, i32 0, metadata !"", i32 0, i32 0, i64 32, i64 32, i64 0, i32 64, metadata !203} ; [ DW_TAG_pointer_type ]
!889 = metadata !{i32 786478, i32 0, metadata !203, metadata !"sc_in", metadata !"sc_in", metadata !"", metadata !89, i32 348, metadata !890, i1 false, i1 false, i32 0, i32 0, null, i32 384, i1 false, null, null, i32 0, metadata !101, i32 348} ; [ DW_TAG_subprogram ]
!890 = metadata !{i32 786453, i32 0, metadata !"", i32 0, i32 0, i64 0, i64 0, i64 0, i32 0, null, metadata !891, i32 0, i32 0} ; [ DW_TAG_subroutine_type ]
!891 = metadata !{null, metadata !888, metadata !144}
!892 = metadata !{i32 786478, i32 0, metadata !203, metadata !"read", metadata !"read", metadata !"_ZN7_ap_sc_7sc_core5sc_inINS_5sc_dt7sc_uintILi4EEEE4readEv", metadata !89, i32 351, metadata !893, i1 false, i1 false, i32 0, i32 0, null, i32 256, i1 false, null, null, i32 0, metadata !101, i32 351} ; [ DW_TAG_subprogram ]
!893 = metadata !{i32 786453, i32 0, metadata !"", i32 0, i32 0, i64 0, i64 0, i64 0, i32 0, null, metadata !894, i32 0, i32 0} ; [ DW_TAG_subroutine_type ]
!894 = metadata !{metadata !895, metadata !888}
!895 = metadata !{i32 786454, metadata !203, metadata !"data_type", metadata !89, i32 344, i64 0, i64 0, i64 0, i32 0, metadata !215} ; [ DW_TAG_typedef ]
!896 = metadata !{i32 786478, i32 0, metadata !203, metadata !"read", metadata !"read", metadata !"_ZNK7_ap_sc_7sc_core5sc_inINS_5sc_dt7sc_uintILi4EEEE4readEv", metadata !89, i32 353, metadata !897, i1 false, i1 false, i32 0, i32 0, null, i32 256, i1 false, null, null, i32 0, metadata !101, i32 353} ; [ DW_TAG_subprogram ]
!897 = metadata !{i32 786453, i32 0, metadata !"", i32 0, i32 0, i64 0, i64 0, i64 0, i32 0, null, metadata !898, i32 0, i32 0} ; [ DW_TAG_subroutine_type ]
!898 = metadata !{metadata !899, metadata !900}
!899 = metadata !{i32 786470, null, metadata !"", null, i32 0, i64 0, i64 0, i64 0, i32 0, metadata !895} ; [ DW_TAG_const_type ]
!900 = metadata !{i32 786447, i32 0, metadata !"", i32 0, i32 0, i64 32, i64 32, i64 0, i32 64, metadata !901} ; [ DW_TAG_pointer_type ]
!901 = metadata !{i32 786470, null, metadata !"", null, i32 0, i64 0, i64 0, i64 0, i32 0, metadata !203} ; [ DW_TAG_const_type ]
!902 = metadata !{i32 786478, i32 0, metadata !203, metadata !"operator const struct _ap_sc_::sc_dt::sc_uint<4> &", metadata !"operator const struct _ap_sc_::sc_dt::sc_uint<4> &", metadata !"_ZNK7_ap_sc_7sc_core5sc_inINS_5sc_dt7sc_uintILi4EEEEcvRKS4_Ev", metadata !89, i32 355, metadata !903, i1 false, i1 false, i32 0, i32 0, null, i32 256, i1 false, null, null, i32 0, metadata !101, i32 355} ; [ DW_TAG_subprogram ]
!903 = metadata !{i32 786453, i32 0, metadata !"", i32 0, i32 0, i64 0, i64 0, i64 0, i32 0, null, metadata !904, i32 0, i32 0} ; [ DW_TAG_subroutine_type ]
!904 = metadata !{metadata !905, metadata !900}
!905 = metadata !{i32 786448, null, null, null, i32 0, i64 0, i64 0, i64 0, i32 0, metadata !899} ; [ DW_TAG_reference_type ]
!906 = metadata !{i32 786478, i32 0, metadata !203, metadata !"operator sc_uint", metadata !"operator sc_uint", metadata !"_ZN7_ap_sc_7sc_core5sc_inINS_5sc_dt7sc_uintILi4EEEEcvKS4_Ev", metadata !89, i32 358, metadata !907, i1 false, i1 false, i32 0, i32 0, null, i32 256, i1 false, null, null, i32 0, metadata !101, i32 358} ; [ DW_TAG_subprogram ]
!907 = metadata !{i32 786453, i32 0, metadata !"", i32 0, i32 0, i64 0, i64 0, i64 0, i32 0, null, metadata !908, i32 0, i32 0} ; [ DW_TAG_subroutine_type ]
!908 = metadata !{metadata !899, metadata !888}
!909 = metadata !{i32 786445, metadata !82, metadata !"inSwitch", metadata !83, i32 12, i64 8, i64 8, i64 24, i32 0, metadata !203} ; [ DW_TAG_member ]
!910 = metadata !{i32 786445, metadata !82, metadata !"outLeds", metadata !83, i32 13, i64 8, i64 8, i64 32, i32 0, metadata !911} ; [ DW_TAG_member ]
!911 = metadata !{i32 786434, metadata !87, metadata !"sc_out<_ap_sc_::sc_dt::sc_uint<4> >", metadata !89, i32 440, i64 8, i64 8, i32 0, i32 0, null, metadata !912, i32 0, null, metadata !993} ; [ DW_TAG_class_type ]
!912 = metadata !{metadata !913, metadata !995, metadata !999, metadata !1002}
!913 = metadata !{i32 786460, metadata !911, null, metadata !89, i32 0, i64 0, i64 0, i64 0, i32 0, metadata !914} ; [ DW_TAG_inheritance ]
!914 = metadata !{i32 786434, metadata !87, metadata !"sc_inout<_ap_sc_::sc_dt::sc_uint<4> >", metadata !89, i32 419, i64 8, i64 8, i32 0, i32 0, null, metadata !915, i32 0, null, metadata !993} ; [ DW_TAG_class_type ]
!915 = metadata !{metadata !916, metadata !963, metadata !967, metadata !970, metadata !973, metadata !980, metadata !984, metadata !990}
!916 = metadata !{i32 786460, metadata !914, null, metadata !89, i32 0, i64 0, i64 0, i64 0, i32 0, metadata !917} ; [ DW_TAG_inheritance ]
!917 = metadata !{i32 786434, metadata !87, metadata !"sc_port_b<_ap_sc_::sc_core::sc_signal_inout_if<_ap_sc_::sc_dt::sc_uint<4> > >", metadata !89, i32 281, i64 8, i64 8, i32 0, i32 0, null, metadata !918, i32 0, null, metadata !961} ; [ DW_TAG_class_type ]
!918 = metadata !{metadata !919, metadata !920, metadata !937, metadata !941, metadata !944, metadata !947, metadata !948, metadata !951, metadata !952, metadata !956, metadata !957}
!919 = metadata !{i32 786460, metadata !917, null, metadata !89, i32 0, i64 0, i64 0, i64 0, i32 0, metadata !95} ; [ DW_TAG_inheritance ]
!920 = metadata !{i32 786445, metadata !917, metadata !"m_if", metadata !89, i32 283, i64 8, i64 8, i64 0, i32 0, metadata !921} ; [ DW_TAG_member ]
!921 = metadata !{i32 786434, metadata !87, metadata !"sc_signal_inout_if<_ap_sc_::sc_dt::sc_uint<4> >", metadata !89, i32 193, i64 8, i64 8, i32 0, i32 0, null, metadata !922, i32 0, null, metadata !856} ; [ DW_TAG_class_type ]
!922 = metadata !{metadata !923, metadata !924, metadata !928, metadata !934}
!923 = metadata !{i32 786460, metadata !921, null, metadata !89, i32 0, i64 0, i64 0, i64 0, i32 0, metadata !210} ; [ DW_TAG_inheritance ]
!924 = metadata !{i32 786478, i32 0, metadata !921, metadata !"sc_signal_inout_if", metadata !"sc_signal_inout_if", metadata !"", metadata !89, i32 197, metadata !925, i1 false, i1 false, i32 0, i32 0, null, i32 256, i1 false, null, null, i32 0, metadata !101, i32 197} ; [ DW_TAG_subprogram ]
!925 = metadata !{i32 786453, i32 0, metadata !"", i32 0, i32 0, i64 0, i64 0, i64 0, i32 0, null, metadata !926, i32 0, i32 0} ; [ DW_TAG_subroutine_type ]
!926 = metadata !{null, metadata !927}
!927 = metadata !{i32 786447, i32 0, metadata !"", i32 0, i32 0, i64 32, i64 32, i64 0, i32 64, metadata !921} ; [ DW_TAG_pointer_type ]
!928 = metadata !{i32 786478, i32 0, metadata !921, metadata !"operator=", metadata !"operator=", metadata !"_ZN7_ap_sc_7sc_core18sc_signal_inout_ifINS_5sc_dt7sc_uintILi4EEEEaSERKS5_", metadata !89, i32 199, metadata !929, i1 false, i1 false, i32 0, i32 0, null, i32 256, i1 false, null, null, i32 0, metadata !101, i32 199} ; [ DW_TAG_subprogram ]
!929 = metadata !{i32 786453, i32 0, metadata !"", i32 0, i32 0, i64 0, i64 0, i64 0, i32 0, null, metadata !930, i32 0, i32 0} ; [ DW_TAG_subroutine_type ]
!930 = metadata !{metadata !931, metadata !927, metadata !932}
!931 = metadata !{i32 786448, null, null, null, i32 0, i64 0, i64 0, i64 0, i32 0, metadata !921} ; [ DW_TAG_reference_type ]
!932 = metadata !{i32 786448, null, null, null, i32 0, i64 0, i64 0, i64 0, i32 0, metadata !933} ; [ DW_TAG_reference_type ]
!933 = metadata !{i32 786470, null, metadata !"", null, i32 0, i64 0, i64 0, i64 0, i32 0, metadata !921} ; [ DW_TAG_const_type ]
!934 = metadata !{i32 786478, i32 0, metadata !921, metadata !"operator=<_ap_sc_::sc_core::sc_signal_inout_if<_ap_sc_::sc_dt::sc_uint<4> > >", metadata !"operator=<_ap_sc_::sc_core::sc_signal_inout_if<_ap_sc_::sc_dt::sc_uint<4> > >", metadata !"_ZN7_ap_sc_7sc_core18sc_signal_inout_ifINS_5sc_dt7sc_uintILi4EEEEaSIS5_EERS5_RKT_", metadata !89, i32 211, metadata !929, i1 false, i1 false, i32 0, i32 0, null, i32 256, i1 false, null, metadata !935, i32 0, metadata !101, i32 211} ; [ DW_TAG_subprogram ]
!935 = metadata !{metadata !936}
!936 = metadata !{i32 786479, null, metadata !"_T2", metadata !921, null, i32 0, i32 0} ; [ DW_TAG_template_type_parameter ]
!937 = metadata !{i32 786478, i32 0, metadata !917, metadata !"sc_port_b", metadata !"sc_port_b", metadata !"", metadata !89, i32 285, metadata !938, i1 false, i1 false, i32 0, i32 0, null, i32 256, i1 false, null, null, i32 0, metadata !101, i32 285} ; [ DW_TAG_subprogram ]
!938 = metadata !{i32 786453, i32 0, metadata !"", i32 0, i32 0, i64 0, i64 0, i64 0, i32 0, null, metadata !939, i32 0, i32 0} ; [ DW_TAG_subroutine_type ]
!939 = metadata !{null, metadata !940}
!940 = metadata !{i32 786447, i32 0, metadata !"", i32 0, i32 0, i64 32, i64 32, i64 0, i32 64, metadata !917} ; [ DW_TAG_pointer_type ]
!941 = metadata !{i32 786478, i32 0, metadata !917, metadata !"sc_port_b", metadata !"sc_port_b", metadata !"", metadata !89, i32 286, metadata !942, i1 false, i1 false, i32 0, i32 0, null, i32 384, i1 false, null, null, i32 0, metadata !101, i32 286} ; [ DW_TAG_subprogram ]
!942 = metadata !{i32 786453, i32 0, metadata !"", i32 0, i32 0, i64 0, i64 0, i64 0, i32 0, null, metadata !943, i32 0, i32 0} ; [ DW_TAG_subroutine_type ]
!943 = metadata !{null, metadata !940, metadata !144}
!944 = metadata !{i32 786478, i32 0, metadata !917, metadata !"bind", metadata !"bind", metadata !"_ZN7_ap_sc_7sc_core9sc_port_bINS0_18sc_signal_inout_ifINS_5sc_dt7sc_uintILi4EEEEEE4bindERS6_", metadata !89, i32 290, metadata !945, i1 false, i1 false, i32 0, i32 0, null, i32 256, i1 false, null, null, i32 0, metadata !101, i32 290} ; [ DW_TAG_subprogram ]
!945 = metadata !{i32 786453, i32 0, metadata !"", i32 0, i32 0, i64 0, i64 0, i64 0, i32 0, null, metadata !946, i32 0, i32 0} ; [ DW_TAG_subroutine_type ]
!946 = metadata !{null, metadata !940, metadata !931}
!947 = metadata !{i32 786478, i32 0, metadata !917, metadata !"operator()", metadata !"operator()", metadata !"_ZN7_ap_sc_7sc_core9sc_port_bINS0_18sc_signal_inout_ifINS_5sc_dt7sc_uintILi4EEEEEEclERS6_", metadata !89, i32 293, metadata !945, i1 false, i1 false, i32 0, i32 0, null, i32 256, i1 false, null, null, i32 0, metadata !101, i32 293} ; [ DW_TAG_subprogram ]
!948 = metadata !{i32 786478, i32 0, metadata !917, metadata !"bind", metadata !"bind", metadata !"_ZN7_ap_sc_7sc_core9sc_port_bINS0_18sc_signal_inout_ifINS_5sc_dt7sc_uintILi4EEEEEE4bindERNS0_15sc_prim_channelE", metadata !89, i32 294, metadata !949, i1 false, i1 false, i32 0, i32 0, null, i32 256, i1 false, null, null, i32 0, metadata !101, i32 294} ; [ DW_TAG_subprogram ]
!949 = metadata !{i32 786453, i32 0, metadata !"", i32 0, i32 0, i64 0, i64 0, i64 0, i32 0, null, metadata !950, i32 0, i32 0} ; [ DW_TAG_subroutine_type ]
!950 = metadata !{null, metadata !940, metadata !155}
!951 = metadata !{i32 786478, i32 0, metadata !917, metadata !"operator()", metadata !"operator()", metadata !"_ZN7_ap_sc_7sc_core9sc_port_bINS0_18sc_signal_inout_ifINS_5sc_dt7sc_uintILi4EEEEEEclERNS0_15sc_prim_channelE", metadata !89, i32 297, metadata !949, i1 false, i1 false, i32 0, i32 0, null, i32 256, i1 false, null, null, i32 0, metadata !101, i32 297} ; [ DW_TAG_subprogram ]
!952 = metadata !{i32 786478, i32 0, metadata !917, metadata !"bind", metadata !"bind", metadata !"_ZN7_ap_sc_7sc_core9sc_port_bINS0_18sc_signal_inout_ifINS_5sc_dt7sc_uintILi4EEEEEE4bindERS7_", metadata !89, i32 298, metadata !953, i1 false, i1 false, i32 0, i32 0, null, i32 256, i1 false, null, null, i32 0, metadata !101, i32 298} ; [ DW_TAG_subprogram ]
!953 = metadata !{i32 786453, i32 0, metadata !"", i32 0, i32 0, i64 0, i64 0, i64 0, i32 0, null, metadata !954, i32 0, i32 0} ; [ DW_TAG_subroutine_type ]
!954 = metadata !{null, metadata !940, metadata !955}
!955 = metadata !{i32 786448, null, null, null, i32 0, i64 0, i64 0, i64 0, i32 0, metadata !917} ; [ DW_TAG_reference_type ]
!956 = metadata !{i32 786478, i32 0, metadata !917, metadata !"operator()", metadata !"operator()", metadata !"_ZN7_ap_sc_7sc_core9sc_port_bINS0_18sc_signal_inout_ifINS_5sc_dt7sc_uintILi4EEEEEEclERS7_", metadata !89, i32 299, metadata !953, i1 false, i1 false, i32 0, i32 0, null, i32 256, i1 false, null, null, i32 0, metadata !101, i32 299} ; [ DW_TAG_subprogram ]
!957 = metadata !{i32 786478, i32 0, metadata !917, metadata !"operator->", metadata !"operator->", metadata !"_ZN7_ap_sc_7sc_core9sc_port_bINS0_18sc_signal_inout_ifINS_5sc_dt7sc_uintILi4EEEEEEptEv", metadata !89, i32 301, metadata !958, i1 false, i1 false, i32 0, i32 0, null, i32 256, i1 false, null, null, i32 0, metadata !101, i32 301} ; [ DW_TAG_subprogram ]
!958 = metadata !{i32 786453, i32 0, metadata !"", i32 0, i32 0, i64 0, i64 0, i64 0, i32 0, null, metadata !959, i32 0, i32 0} ; [ DW_TAG_subroutine_type ]
!959 = metadata !{metadata !960, metadata !940}
!960 = metadata !{i32 786447, null, metadata !"", null, i32 0, i64 32, i64 32, i64 0, i32 0, metadata !921} ; [ DW_TAG_pointer_type ]
!961 = metadata !{metadata !962}
!962 = metadata !{i32 786479, null, metadata !"IF", metadata !921, null, i32 0, i32 0} ; [ DW_TAG_template_type_parameter ]
!963 = metadata !{i32 786478, i32 0, metadata !914, metadata !"sc_inout", metadata !"sc_inout", metadata !"", metadata !89, i32 423, metadata !964, i1 false, i1 false, i32 0, i32 0, null, i32 256, i1 false, null, null, i32 0, metadata !101, i32 423} ; [ DW_TAG_subprogram ]
!964 = metadata !{i32 786453, i32 0, metadata !"", i32 0, i32 0, i64 0, i64 0, i64 0, i32 0, null, metadata !965, i32 0, i32 0} ; [ DW_TAG_subroutine_type ]
!965 = metadata !{null, metadata !966}
!966 = metadata !{i32 786447, i32 0, metadata !"", i32 0, i32 0, i64 32, i64 32, i64 0, i32 64, metadata !914} ; [ DW_TAG_pointer_type ]
!967 = metadata !{i32 786478, i32 0, metadata !914, metadata !"sc_inout", metadata !"sc_inout", metadata !"", metadata !89, i32 424, metadata !968, i1 false, i1 false, i32 0, i32 0, null, i32 384, i1 false, null, null, i32 0, metadata !101, i32 424} ; [ DW_TAG_subprogram ]
!968 = metadata !{i32 786453, i32 0, metadata !"", i32 0, i32 0, i64 0, i64 0, i64 0, i32 0, null, metadata !969, i32 0, i32 0} ; [ DW_TAG_subroutine_type ]
!969 = metadata !{null, metadata !966, metadata !144}
!970 = metadata !{i32 786478, i32 0, metadata !914, metadata !"write", metadata !"write", metadata !"_ZN7_ap_sc_7sc_core8sc_inoutINS_5sc_dt7sc_uintILi4EEEE5writeERKS4_", metadata !89, i32 427, metadata !971, i1 false, i1 false, i32 0, i32 0, null, i32 256, i1 false, null, null, i32 0, metadata !101, i32 427} ; [ DW_TAG_subprogram ]
!971 = metadata !{i32 786453, i32 0, metadata !"", i32 0, i32 0, i64 0, i64 0, i64 0, i32 0, null, metadata !972, i32 0, i32 0} ; [ DW_TAG_subroutine_type ]
!972 = metadata !{null, metadata !966, metadata !777}
!973 = metadata !{i32 786478, i32 0, metadata !914, metadata !"operator=<_ap_sc_::sc_core::sc_inout<_ap_sc_::sc_dt::sc_uint<4> > >", metadata !"operator=<_ap_sc_::sc_core::sc_inout<_ap_sc_::sc_dt::sc_uint<4> > >", metadata !"_ZN7_ap_sc_7sc_core8sc_inoutINS_5sc_dt7sc_uintILi4EEEEaSIS5_EEvRKT_", metadata !89, i32 429, metadata !974, i1 false, i1 false, i32 0, i32 0, null, i32 256, i1 false, null, metadata !978, i32 0, metadata !101, i32 429} ; [ DW_TAG_subprogram ]
!974 = metadata !{i32 786453, i32 0, metadata !"", i32 0, i32 0, i64 0, i64 0, i64 0, i32 0, null, metadata !975, i32 0, i32 0} ; [ DW_TAG_subroutine_type ]
!975 = metadata !{null, metadata !966, metadata !976}
!976 = metadata !{i32 786448, null, null, null, i32 0, i64 0, i64 0, i64 0, i32 0, metadata !977} ; [ DW_TAG_reference_type ]
!977 = metadata !{i32 786470, null, metadata !"", null, i32 0, i64 0, i64 0, i64 0, i32 0, metadata !914} ; [ DW_TAG_const_type ]
!978 = metadata !{metadata !979}
!979 = metadata !{i32 786479, null, metadata !"_T2", metadata !914, null, i32 0, i32 0} ; [ DW_TAG_template_type_parameter ]
!980 = metadata !{i32 786478, i32 0, metadata !914, metadata !"read", metadata !"read", metadata !"_ZN7_ap_sc_7sc_core8sc_inoutINS_5sc_dt7sc_uintILi4EEEE4readEv", metadata !89, i32 431, metadata !981, i1 false, i1 false, i32 0, i32 0, null, i32 256, i1 false, null, null, i32 0, metadata !101, i32 431} ; [ DW_TAG_subprogram ]
!981 = metadata !{i32 786453, i32 0, metadata !"", i32 0, i32 0, i64 0, i64 0, i64 0, i32 0, null, metadata !982, i32 0, i32 0} ; [ DW_TAG_subroutine_type ]
!982 = metadata !{metadata !983, metadata !966}
!983 = metadata !{i32 786454, metadata !914, metadata !"data_type", metadata !89, i32 421, i64 0, i64 0, i64 0, i32 0, metadata !215} ; [ DW_TAG_typedef ]
!984 = metadata !{i32 786478, i32 0, metadata !914, metadata !"operator const struct _ap_sc_::sc_dt::sc_uint<4> &", metadata !"operator const struct _ap_sc_::sc_dt::sc_uint<4> &", metadata !"_ZNK7_ap_sc_7sc_core8sc_inoutINS_5sc_dt7sc_uintILi4EEEEcvRKS4_Ev", metadata !89, i32 432, metadata !985, i1 false, i1 false, i32 0, i32 0, null, i32 256, i1 false, null, null, i32 0, metadata !101, i32 432} ; [ DW_TAG_subprogram ]
!985 = metadata !{i32 786453, i32 0, metadata !"", i32 0, i32 0, i64 0, i64 0, i64 0, i32 0, null, metadata !986, i32 0, i32 0} ; [ DW_TAG_subroutine_type ]
!986 = metadata !{metadata !987, metadata !989}
!987 = metadata !{i32 786448, null, null, null, i32 0, i64 0, i64 0, i64 0, i32 0, metadata !988} ; [ DW_TAG_reference_type ]
!988 = metadata !{i32 786470, null, metadata !"", null, i32 0, i64 0, i64 0, i64 0, i32 0, metadata !983} ; [ DW_TAG_const_type ]
!989 = metadata !{i32 786447, i32 0, metadata !"", i32 0, i32 0, i64 32, i64 32, i64 0, i32 64, metadata !977} ; [ DW_TAG_pointer_type ]
!990 = metadata !{i32 786478, i32 0, metadata !914, metadata !"operator sc_uint", metadata !"operator sc_uint", metadata !"_ZN7_ap_sc_7sc_core8sc_inoutINS_5sc_dt7sc_uintILi4EEEEcvKS4_Ev", metadata !89, i32 435, metadata !991, i1 false, i1 false, i32 0, i32 0, null, i32 256, i1 false, null, null, i32 0, metadata !101, i32 435} ; [ DW_TAG_subprogram ]
!991 = metadata !{i32 786453, i32 0, metadata !"", i32 0, i32 0, i64 0, i64 0, i64 0, i32 0, null, metadata !992, i32 0, i32 0} ; [ DW_TAG_subroutine_type ]
!992 = metadata !{metadata !988, metadata !966}
!993 = metadata !{metadata !994}
!994 = metadata !{i32 786479, null, metadata !"_T", metadata !215, null, i32 0, i32 0} ; [ DW_TAG_template_type_parameter ]
!995 = metadata !{i32 786478, i32 0, metadata !911, metadata !"sc_out", metadata !"sc_out", metadata !"", metadata !89, i32 443, metadata !996, i1 false, i1 false, i32 0, i32 0, null, i32 256, i1 false, null, null, i32 0, metadata !101, i32 443} ; [ DW_TAG_subprogram ]
!996 = metadata !{i32 786453, i32 0, metadata !"", i32 0, i32 0, i64 0, i64 0, i64 0, i32 0, null, metadata !997, i32 0, i32 0} ; [ DW_TAG_subroutine_type ]
!997 = metadata !{null, metadata !998}
!998 = metadata !{i32 786447, i32 0, metadata !"", i32 0, i32 0, i64 32, i64 32, i64 0, i32 64, metadata !911} ; [ DW_TAG_pointer_type ]
!999 = metadata !{i32 786478, i32 0, metadata !911, metadata !"sc_out", metadata !"sc_out", metadata !"", metadata !89, i32 444, metadata !1000, i1 false, i1 false, i32 0, i32 0, null, i32 384, i1 false, null, null, i32 0, metadata !101, i32 444} ; [ DW_TAG_subprogram ]
!1000 = metadata !{i32 786453, i32 0, metadata !"", i32 0, i32 0, i64 0, i64 0, i64 0, i32 0, null, metadata !1001, i32 0, i32 0} ; [ DW_TAG_subroutine_type ]
!1001 = metadata !{null, metadata !998, metadata !144}
!1002 = metadata !{i32 786478, i32 0, metadata !911, metadata !"operator=<_ap_sc_::sc_core::sc_out<_ap_sc_::sc_dt::sc_uint<4> > >", metadata !"operator=<_ap_sc_::sc_core::sc_out<_ap_sc_::sc_dt::sc_uint<4> > >", metadata !"_ZN7_ap_sc_7sc_core6sc_outINS_5sc_dt7sc_uintILi4EEEEaSIS5_EEvRKT_", metadata !89, i32 446, metadata !1003, i1 false, i1 false, i32 0, i32 0, null, i32 256, i1 false, null, metadata !1007, i32 0, metadata !101, i32 446} ; [ DW_TAG_subprogram ]
!1003 = metadata !{i32 786453, i32 0, metadata !"", i32 0, i32 0, i64 0, i64 0, i64 0, i32 0, null, metadata !1004, i32 0, i32 0} ; [ DW_TAG_subroutine_type ]
!1004 = metadata !{null, metadata !998, metadata !1005}
!1005 = metadata !{i32 786448, null, null, null, i32 0, i64 0, i64 0, i64 0, i32 0, metadata !1006} ; [ DW_TAG_reference_type ]
!1006 = metadata !{i32 786470, null, metadata !"", null, i32 0, i64 0, i64 0, i64 0, i32 0, metadata !911} ; [ DW_TAG_const_type ]
!1007 = metadata !{metadata !1008}
!1008 = metadata !{i32 786479, null, metadata !"_T2", metadata !911, null, i32 0, i32 0} ; [ DW_TAG_template_type_parameter ]
!1009 = metadata !{i32 786445, metadata !82, metadata !"timer", metadata !83, i32 14, i64 8, i64 8, i64 40, i32 0, metadata !1010} ; [ DW_TAG_member ]
!1010 = metadata !{i32 786434, metadata !87, metadata !"sc_signal<bool>", metadata !89, i32 322, i64 8, i64 8, i32 0, i32 0, null, metadata !1011, i32 0, null, metadata !135} ; [ DW_TAG_class_type ]
!1011 = metadata !{metadata !1012, metadata !1029, metadata !1033, metadata !1036}
!1012 = metadata !{i32 786460, metadata !1010, null, metadata !89, i32 0, i64 0, i64 0, i64 0, i32 0, metadata !1013} ; [ DW_TAG_inheritance ]
!1013 = metadata !{i32 786434, metadata !87, metadata !"sc_signal_inout_if<bool>", metadata !89, i32 193, i64 8, i64 8, i32 0, i32 0, null, metadata !1014, i32 0, null, metadata !135} ; [ DW_TAG_class_type ]
!1014 = metadata !{metadata !1015, metadata !1016, metadata !1020, metadata !1026}
!1015 = metadata !{i32 786460, metadata !1013, null, metadata !89, i32 0, i64 0, i64 0, i64 0, i32 0, metadata !104} ; [ DW_TAG_inheritance ]
!1016 = metadata !{i32 786478, i32 0, metadata !1013, metadata !"sc_signal_inout_if", metadata !"sc_signal_inout_if", metadata !"", metadata !89, i32 197, metadata !1017, i1 false, i1 false, i32 0, i32 0, null, i32 256, i1 false, null, null, i32 0, metadata !101, i32 197} ; [ DW_TAG_subprogram ]
!1017 = metadata !{i32 786453, i32 0, metadata !"", i32 0, i32 0, i64 0, i64 0, i64 0, i32 0, null, metadata !1018, i32 0, i32 0} ; [ DW_TAG_subroutine_type ]
!1018 = metadata !{null, metadata !1019}
!1019 = metadata !{i32 786447, i32 0, metadata !"", i32 0, i32 0, i64 32, i64 32, i64 0, i32 64, metadata !1013} ; [ DW_TAG_pointer_type ]
!1020 = metadata !{i32 786478, i32 0, metadata !1013, metadata !"operator=", metadata !"operator=", metadata !"_ZN7_ap_sc_7sc_core18sc_signal_inout_ifIbEaSERKS2_", metadata !89, i32 199, metadata !1021, i1 false, i1 false, i32 0, i32 0, null, i32 256, i1 false, null, null, i32 0, metadata !101, i32 199} ; [ DW_TAG_subprogram ]
!1021 = metadata !{i32 786453, i32 0, metadata !"", i32 0, i32 0, i64 0, i64 0, i64 0, i32 0, null, metadata !1022, i32 0, i32 0} ; [ DW_TAG_subroutine_type ]
!1022 = metadata !{metadata !1023, metadata !1019, metadata !1024}
!1023 = metadata !{i32 786448, null, null, null, i32 0, i64 0, i64 0, i64 0, i32 0, metadata !1013} ; [ DW_TAG_reference_type ]
!1024 = metadata !{i32 786448, null, null, null, i32 0, i64 0, i64 0, i64 0, i32 0, metadata !1025} ; [ DW_TAG_reference_type ]
!1025 = metadata !{i32 786470, null, metadata !"", null, i32 0, i64 0, i64 0, i64 0, i32 0, metadata !1013} ; [ DW_TAG_const_type ]
!1026 = metadata !{i32 786478, i32 0, metadata !1013, metadata !"operator=<_ap_sc_::sc_core::sc_signal_inout_if<bool> >", metadata !"operator=<_ap_sc_::sc_core::sc_signal_inout_if<bool> >", metadata !"_ZN7_ap_sc_7sc_core18sc_signal_inout_ifIbEaSIS2_EERS2_RKT_", metadata !89, i32 211, metadata !1021, i1 false, i1 false, i32 0, i32 0, null, i32 256, i1 false, null, metadata !1027, i32 0, metadata !101, i32 211} ; [ DW_TAG_subprogram ]
!1027 = metadata !{metadata !1028}
!1028 = metadata !{i32 786479, null, metadata !"_T2", metadata !1013, null, i32 0, i32 0} ; [ DW_TAG_template_type_parameter ]
!1029 = metadata !{i32 786478, i32 0, metadata !1010, metadata !"sc_signal", metadata !"sc_signal", metadata !"", metadata !89, i32 326, metadata !1030, i1 false, i1 false, i32 0, i32 0, null, i32 256, i1 false, null, null, i32 0, metadata !101, i32 326} ; [ DW_TAG_subprogram ]
!1030 = metadata !{i32 786453, i32 0, metadata !"", i32 0, i32 0, i64 0, i64 0, i64 0, i32 0, null, metadata !1031, i32 0, i32 0} ; [ DW_TAG_subroutine_type ]
!1031 = metadata !{null, metadata !1032}
!1032 = metadata !{i32 786447, i32 0, metadata !"", i32 0, i32 0, i64 32, i64 32, i64 0, i32 64, metadata !1010} ; [ DW_TAG_pointer_type ]
!1033 = metadata !{i32 786478, i32 0, metadata !1010, metadata !"sc_signal", metadata !"sc_signal", metadata !"", metadata !89, i32 327, metadata !1034, i1 false, i1 false, i32 0, i32 0, null, i32 384, i1 false, null, null, i32 0, metadata !101, i32 327} ; [ DW_TAG_subprogram ]
!1034 = metadata !{i32 786453, i32 0, metadata !"", i32 0, i32 0, i64 0, i64 0, i64 0, i32 0, null, metadata !1035, i32 0, i32 0} ; [ DW_TAG_subroutine_type ]
!1035 = metadata !{null, metadata !1032, metadata !144}
!1036 = metadata !{i32 786478, i32 0, metadata !1010, metadata !"operator=", metadata !"operator=", metadata !"_ZN7_ap_sc_7sc_core9sc_signalIbEaSERKb", metadata !89, i32 329, metadata !1037, i1 false, i1 false, i32 0, i32 0, null, i32 256, i1 false, null, null, i32 0, metadata !101, i32 329} ; [ DW_TAG_subprogram ]
!1037 = metadata !{i32 786453, i32 0, metadata !"", i32 0, i32 0, i64 0, i64 0, i64 0, i32 0, null, metadata !1038, i32 0, i32 0} ; [ DW_TAG_subroutine_type ]
!1038 = metadata !{metadata !1039, metadata !1032, metadata !1040}
!1039 = metadata !{i32 786448, null, null, null, i32 0, i64 0, i64 0, i64 0, i32 0, metadata !1010} ; [ DW_TAG_reference_type ]
!1040 = metadata !{i32 786448, null, null, null, i32 0, i64 0, i64 0, i64 0, i32 0, metadata !131} ; [ DW_TAG_reference_type ]
!1041 = metadata !{i32 786445, metadata !82, metadata !"switchs", metadata !83, i32 15, i64 8, i64 8, i64 48, i32 0, metadata !215} ; [ DW_TAG_member ]
!1042 = metadata !{i32 786478, i32 0, metadata !82, metadata !"iosThread", metadata !"iosThread", metadata !"_ZN4iosc9iosThreadEv", metadata !83, i32 16, metadata !79, i1 false, i1 false, i32 0, i32 0, null, i32 256, i1 false, null, null, i32 0, metadata !101, i32 16} ; [ DW_TAG_subprogram ]
!1043 = metadata !{i32 786478, i32 0, metadata !82, metadata !"timeThread", metadata !"timeThread", metadata !"_ZN4iosc10timeThreadEv", metadata !83, i32 17, metadata !79, i1 false, i1 false, i32 0, i32 0, null, i32 256, i1 false, null, null, i32 0, metadata !101, i32 17} ; [ DW_TAG_subprogram ]
!1044 = metadata !{i32 786478, i32 0, metadata !82, metadata !"iosc", metadata !"iosc", metadata !"", metadata !83, i32 18, metadata !1045, i1 false, i1 false, i32 0, i32 0, null, i32 256, i1 false, null, null, i32 0, metadata !101, i32 18} ; [ DW_TAG_subprogram ]
!1045 = metadata !{i32 786453, i32 0, metadata !"", i32 0, i32 0, i64 0, i64 0, i64 0, i32 0, null, metadata !1046, i32 0, i32 0} ; [ DW_TAG_subroutine_type ]
!1046 = metadata !{null, metadata !81, metadata !1047}
!1047 = metadata !{i32 786434, metadata !87, metadata !"sc_module_name", metadata !89, i32 591, i64 8, i64 8, i32 0, i32 0, null, metadata !1048, i32 0, null, null} ; [ DW_TAG_class_type ]
!1048 = metadata !{metadata !1049, metadata !1053}
!1049 = metadata !{i32 786478, i32 0, metadata !1047, metadata !"sc_module_name", metadata !"sc_module_name", metadata !"", metadata !89, i32 594, metadata !1050, i1 false, i1 false, i32 0, i32 0, null, i32 256, i1 false, null, null, i32 0, metadata !101, i32 594} ; [ DW_TAG_subprogram ]
!1050 = metadata !{i32 786453, i32 0, metadata !"", i32 0, i32 0, i64 0, i64 0, i64 0, i32 0, null, metadata !1051, i32 0, i32 0} ; [ DW_TAG_subroutine_type ]
!1051 = metadata !{null, metadata !1052, metadata !144}
!1052 = metadata !{i32 786447, i32 0, metadata !"", i32 0, i32 0, i64 32, i64 32, i64 0, i32 64, metadata !1047} ; [ DW_TAG_pointer_type ]
!1053 = metadata !{i32 786478, i32 0, metadata !1047, metadata !"sc_module_name", metadata !"sc_module_name", metadata !"", metadata !89, i32 595, metadata !1054, i1 false, i1 false, i32 0, i32 0, null, i32 256, i1 false, null, null, i32 0, metadata !101, i32 595} ; [ DW_TAG_subprogram ]
!1054 = metadata !{i32 786453, i32 0, metadata !"", i32 0, i32 0, i64 0, i64 0, i64 0, i32 0, null, metadata !1055, i32 0, i32 0} ; [ DW_TAG_subroutine_type ]
!1055 = metadata !{null, metadata !1052, metadata !1056}
!1056 = metadata !{i32 786448, null, null, null, i32 0, i64 0, i64 0, i64 0, i32 0, metadata !1057} ; [ DW_TAG_reference_type ]
!1057 = metadata !{i32 786470, null, metadata !"", null, i32 0, i64 0, i64 0, i64 0, i32 0, metadata !1047} ; [ DW_TAG_const_type ]
!1058 = metadata !{metadata !1059}
!1059 = metadata !{i32 0, i32 0, metadata !1060}
!1060 = metadata !{metadata !1061}
!1061 = metadata !{metadata !"iosc.clk.m_if.Val", metadata !63, metadata !"bool", i32 0, i32 0}
!1062 = metadata !{metadata !1063}
!1063 = metadata !{i32 0, i32 0, metadata !1064}
!1064 = metadata !{metadata !1065}
!1065 = metadata !{metadata !"iosc.reset.m_if.Val", metadata !63, metadata !"bool", i32 0, i32 0}
!1066 = metadata !{metadata !1067}
!1067 = metadata !{i32 0, i32 3, metadata !1068}
!1068 = metadata !{metadata !1069}
!1069 = metadata !{metadata !"iosc.ctrl.m_if.Val.V", metadata !63, metadata !"uint4", i32 0, i32 3}
!1070 = metadata !{metadata !1071}
!1071 = metadata !{i32 0, i32 3, metadata !1072}
!1072 = metadata !{metadata !1073}
!1073 = metadata !{metadata !"iosc.inSwitch.m_if.Val.V", metadata !63, metadata !"uint4", i32 0, i32 3}
!1074 = metadata !{metadata !1075}
!1075 = metadata !{i32 0, i32 3, metadata !1076}
!1076 = metadata !{metadata !1077}
!1077 = metadata !{metadata !"iosc.outLeds.m_if.Val.V", metadata !63, metadata !"uint4", i32 0, i32 3}
!1078 = metadata !{metadata !1079}
!1079 = metadata !{i32 0, i32 0, metadata !1080}
!1080 = metadata !{metadata !1081}
!1081 = metadata !{metadata !"iosc.timer.Val", metadata !63, metadata !"bool", i32 0, i32 0}
!1082 = metadata !{metadata !1083}
!1083 = metadata !{i32 0, i32 3, metadata !1084}
!1084 = metadata !{metadata !1085}
!1085 = metadata !{metadata !"iosc.switchs.V", metadata !63, metadata !"uint4", i32 0, i32 3}
!1086 = metadata !{i32 790531, metadata !1087, metadata !"iosc.clk.m_if.Val", null, i32 37, metadata !1089, i32 0, i32 0} ; [ DW_TAG_arg_variable_field ]
!1087 = metadata !{i32 786689, metadata !77, metadata !"this", metadata !78, i32 16777253, metadata !1088, i32 64, i32 0} ; [ DW_TAG_arg_variable ]
!1088 = metadata !{i32 786447, null, metadata !"", null, i32 0, i64 32, i64 32, i64 0, i32 0, metadata !82} ; [ DW_TAG_pointer_type ]
!1089 = metadata !{i32 786447, null, metadata !"", null, i32 0, i64 32, i64 32, i64 0, i32 0, metadata !1090} ; [ DW_TAG_pointer_type ]
!1090 = metadata !{i32 786438, null, metadata !"iosc", metadata !83, i32 6, i64 8, i64 8, i32 0, i32 0, null, metadata !1091, i32 0, null, null} ; [ DW_TAG_class_field_type ]
!1091 = metadata !{metadata !1092}
!1092 = metadata !{i32 786438, metadata !87, metadata !"sc_in<bool>", metadata !89, i32 370, i64 8, i64 8, i32 0, i32 0, null, metadata !1093, i32 0, null, metadata !135} ; [ DW_TAG_class_field_type ]
!1093 = metadata !{metadata !1094}
!1094 = metadata !{i32 786438, metadata !87, metadata !"sc_port_b<_ap_sc_::sc_core::sc_signal_in_if<bool> >", metadata !89, i32 281, i64 8, i64 8, i32 0, i32 0, null, metadata !1095, i32 0, null, metadata !168} ; [ DW_TAG_class_field_type ]
!1095 = metadata !{metadata !1096}
!1096 = metadata !{i32 786438, metadata !87, metadata !"sc_signal_in_if<bool>", metadata !89, i32 172, i64 8, i64 8, i32 0, i32 0, null, metadata !1097, i32 0, null, metadata !135} ; [ DW_TAG_class_field_type ]
!1097 = metadata !{metadata !113}
!1098 = metadata !{i32 37, i32 12, metadata !77, null}
!1099 = metadata !{i32 790531, metadata !1087, metadata !"iosc.reset.m_if.Val", null, i32 37, metadata !1089, i32 0, i32 0} ; [ DW_TAG_arg_variable_field ]
!1100 = metadata !{i32 790531, metadata !1087, metadata !"iosc.ctrl.m_if.Val.V", null, i32 37, metadata !1101, i32 0, i32 0} ; [ DW_TAG_arg_variable_field ]
!1101 = metadata !{i32 786447, null, metadata !"", null, i32 0, i64 32, i64 32, i64 0, i32 0, metadata !1102} ; [ DW_TAG_pointer_type ]
!1102 = metadata !{i32 786438, null, metadata !"iosc", metadata !83, i32 6, i64 4, i64 8, i32 0, i32 0, null, metadata !1103, i32 0, null, null} ; [ DW_TAG_class_field_type ]
!1103 = metadata !{metadata !1104}
!1104 = metadata !{i32 786438, metadata !87, metadata !"sc_in<_ap_sc_::sc_dt::sc_uint<4> >", metadata !89, i32 342, i64 4, i64 8, i32 0, i32 0, null, metadata !1105, i32 0, null, metadata !856} ; [ DW_TAG_class_field_type ]
!1105 = metadata !{metadata !1106}
!1106 = metadata !{i32 786438, metadata !87, metadata !"sc_port_b<_ap_sc_::sc_core::sc_signal_in_if<_ap_sc_::sc_dt::sc_uint<4> > >", metadata !89, i32 281, i64 4, i64 8, i32 0, i32 0, null, metadata !1107, i32 0, null, metadata !883} ; [ DW_TAG_class_field_type ]
!1107 = metadata !{metadata !1108}
!1108 = metadata !{i32 786438, metadata !87, metadata !"sc_signal_in_if<_ap_sc_::sc_dt::sc_uint<4> >", metadata !89, i32 172, i64 4, i64 8, i32 0, i32 0, null, metadata !1109, i32 0, null, metadata !856} ; [ DW_TAG_class_field_type ]
!1109 = metadata !{metadata !1110}
!1110 = metadata !{i32 786438, metadata !216, metadata !"sc_uint<4>", metadata !218, i32 269, i64 4, i64 8, i32 0, i32 0, null, metadata !1111, i32 0, null, metadata !836} ; [ DW_TAG_class_field_type ]
!1111 = metadata !{metadata !1112}
!1112 = metadata !{i32 786438, null, metadata !"ap_int_base<4, false, true>", metadata !222, i32 1388, i64 4, i64 8, i32 0, i32 0, null, metadata !1113, i32 0, null, metadata !747} ; [ DW_TAG_class_field_type ]
!1113 = metadata !{metadata !1114}
!1114 = metadata !{i32 786438, null, metadata !"ssdm_int<4 + 1024 * 0, false>", metadata !226, i32 10, i64 4, i64 8, i32 0, i32 0, null, metadata !1115, i32 0, null, metadata !234} ; [ DW_TAG_class_field_type ]
!1115 = metadata !{metadata !228}
!1116 = metadata !{i32 790531, metadata !1087, metadata !"iosc.inSwitch.m_if.Val.V", null, i32 37, metadata !1101, i32 0, i32 0} ; [ DW_TAG_arg_variable_field ]
!1117 = metadata !{i32 790531, metadata !1087, metadata !"iosc.outLeds.m_if.Val.V", null, i32 37, metadata !1118, i32 0, i32 0} ; [ DW_TAG_arg_variable_field ]
!1118 = metadata !{i32 786447, null, metadata !"", null, i32 0, i64 32, i64 32, i64 0, i32 0, metadata !1119} ; [ DW_TAG_pointer_type ]
!1119 = metadata !{i32 786438, null, metadata !"iosc", metadata !83, i32 6, i64 4, i64 8, i32 0, i32 0, null, metadata !1120, i32 0, null, null} ; [ DW_TAG_class_field_type ]
!1120 = metadata !{metadata !1121}
!1121 = metadata !{i32 786438, metadata !87, metadata !"sc_out<_ap_sc_::sc_dt::sc_uint<4> >", metadata !89, i32 440, i64 4, i64 8, i32 0, i32 0, null, metadata !1122, i32 0, null, metadata !993} ; [ DW_TAG_class_field_type ]
!1122 = metadata !{metadata !1123}
!1123 = metadata !{i32 786438, metadata !87, metadata !"sc_inout<_ap_sc_::sc_dt::sc_uint<4> >", metadata !89, i32 419, i64 4, i64 8, i32 0, i32 0, null, metadata !1124, i32 0, null, metadata !993} ; [ DW_TAG_class_field_type ]
!1124 = metadata !{metadata !1125}
!1125 = metadata !{i32 786438, metadata !87, metadata !"sc_port_b<_ap_sc_::sc_core::sc_signal_inout_if<_ap_sc_::sc_dt::sc_uint<4> > >", metadata !89, i32 281, i64 4, i64 8, i32 0, i32 0, null, metadata !1126, i32 0, null, metadata !961} ; [ DW_TAG_class_field_type ]
!1126 = metadata !{metadata !1127}
!1127 = metadata !{i32 786438, metadata !87, metadata !"sc_signal_inout_if<_ap_sc_::sc_dt::sc_uint<4> >", metadata !89, i32 193, i64 4, i64 8, i32 0, i32 0, null, metadata !1107, i32 0, null, metadata !856} ; [ DW_TAG_class_field_type ]
!1128 = metadata !{i32 790531, metadata !1087, metadata !"iosc.timer.Val", null, i32 37, metadata !1129, i32 0, i32 0} ; [ DW_TAG_arg_variable_field ]
!1129 = metadata !{i32 786447, null, metadata !"", null, i32 0, i64 32, i64 32, i64 0, i32 0, metadata !1130} ; [ DW_TAG_pointer_type ]
!1130 = metadata !{i32 786438, null, metadata !"iosc", metadata !83, i32 6, i64 8, i64 8, i32 0, i32 0, null, metadata !1131, i32 0, null, null} ; [ DW_TAG_class_field_type ]
!1131 = metadata !{metadata !1132}
!1132 = metadata !{i32 786438, metadata !87, metadata !"sc_signal<bool>", metadata !89, i32 322, i64 8, i64 8, i32 0, i32 0, null, metadata !1133, i32 0, null, metadata !135} ; [ DW_TAG_class_field_type ]
!1133 = metadata !{metadata !1134}
!1134 = metadata !{i32 786438, metadata !87, metadata !"sc_signal_inout_if<bool>", metadata !89, i32 193, i64 8, i64 8, i32 0, i32 0, null, metadata !1095, i32 0, null, metadata !135} ; [ DW_TAG_class_field_type ]
!1135 = metadata !{i32 790531, metadata !1087, metadata !"iosc.switchs.V", null, i32 37, metadata !1136, i32 0, i32 0} ; [ DW_TAG_arg_variable_field ]
!1136 = metadata !{i32 786447, null, metadata !"", null, i32 0, i64 32, i64 32, i64 0, i32 0, metadata !1137} ; [ DW_TAG_pointer_type ]
!1137 = metadata !{i32 786438, null, metadata !"iosc", metadata !83, i32 6, i64 4, i64 8, i32 0, i32 0, null, metadata !1109, i32 0, null, null} ; [ DW_TAG_class_field_type ]
!1138 = metadata !{i32 38, i32 4, metadata !76, null}
!1139 = metadata !{i32 39, i32 3, metadata !76, null}
!1140 = metadata !{i32 40, i32 3, metadata !76, null}
!1141 = metadata !{i32 41, i32 3, metadata !76, null}
!1142 = metadata !{i32 42, i32 3, metadata !76, null}
!1143 = metadata !{i32 43, i32 3, metadata !76, null}
!1144 = metadata !{i32 43, i32 106, metadata !76, null}
!1145 = metadata !{i32 43, i32 190, metadata !76, null}
!1146 = metadata !{i32 43, i32 240, metadata !76, null}
!1147 = metadata !{i32 786688, metadata !76, metadata !"_ssdm_reset_v", metadata !78, i32 43, metadata !236, i32 0, i32 0} ; [ DW_TAG_auto_variable ]
!1148 = metadata !{i32 51, i32 44, metadata !76, null}
!1149 = metadata !{i32 51, i32 82, metadata !76, null}
!1150 = metadata !{i32 803, i32 19, metadata !1151, metadata !1156}
!1151 = metadata !{i32 786443, metadata !1152, i32 803, i32 17, metadata !89, i32 52} ; [ DW_TAG_lexical_block ]
!1152 = metadata !{i32 786443, metadata !1153, i32 802, i32 58, metadata !89, i32 51} ; [ DW_TAG_lexical_block ]
!1153 = metadata !{i32 786478, i32 0, metadata !87, metadata !"wait", metadata !"wait", metadata !"_ZN7_ap_sc_7sc_core4waitEi", metadata !89, i32 802, metadata !1154, i1 false, i1 true, i32 0, i32 0, null, i32 256, i1 false, null, null, null, metadata !101, i32 802} ; [ DW_TAG_subprogram ]
!1154 = metadata !{i32 786453, i32 0, metadata !"", i32 0, i32 0, i64 0, i64 0, i64 0, i32 0, null, metadata !1155, i32 0, i32 0} ; [ DW_TAG_subroutine_type ]
!1155 = metadata !{null, metadata !236}
!1156 = metadata !{i32 39, i32 1, metadata !76, null}
!1157 = metadata !{i32 786689, metadata !1158, metadata !"P", metadata !89, i32 16777344, metadata !1161, i32 0, i32 0} ; [ DW_TAG_arg_variable ]
!1158 = metadata !{i32 786478, i32 0, metadata !89, metadata !"_ssdm_op_WRITE<bool>", metadata !"_ssdm_op_WRITE<bool>", metadata !"_Z14_ssdm_op_WRITEIbEvRVbRKT_", metadata !89, i32 128, metadata !1159, i1 false, i1 true, i32 0, i32 0, null, i32 256, i1 false, null, metadata !1162, null, metadata !101, i32 167} ; [ DW_TAG_subprogram ]
!1159 = metadata !{i32 786453, i32 0, metadata !"", i32 0, i32 0, i64 0, i64 0, i64 0, i32 0, null, metadata !1160, i32 0, i32 0} ; [ DW_TAG_subroutine_type ]
!1160 = metadata !{null, metadata !1161, metadata !1040}
!1161 = metadata !{i32 786448, null, null, null, i32 0, i64 0, i64 0, i64 0, i32 0, metadata !114} ; [ DW_TAG_reference_type ]
!1162 = metadata !{metadata !1163}
!1163 = metadata !{i32 786479, null, metadata !"T2", metadata !115, null, i32 0, i32 0} ; [ DW_TAG_template_type_parameter ]
!1164 = metadata !{i32 128, i32 96, metadata !1158, metadata !1165}
!1165 = metadata !{i32 207, i32 13, metadata !1166, metadata !1174}
!1166 = metadata !{i32 786443, metadata !1167, i32 205, i32 73, metadata !89, i32 11} ; [ DW_TAG_lexical_block ]
!1167 = metadata !{i32 786478, i32 0, metadata !87, metadata !"write<int>", metadata !"write<int>", metadata !"_ZN7_ap_sc_7sc_core18sc_signal_inout_ifIbE5writeIiEEvRKT_", metadata !89, i32 205, metadata !1168, i1 false, i1 true, i32 0, i32 0, null, i32 256, i1 false, null, metadata !1172, null, metadata !101, i32 205} ; [ DW_TAG_subprogram ]
!1168 = metadata !{i32 786453, i32 0, metadata !"", i32 0, i32 0, i64 0, i64 0, i64 0, i32 0, null, metadata !1169, i32 0, i32 0} ; [ DW_TAG_subroutine_type ]
!1169 = metadata !{null, metadata !1019, metadata !1170}
!1170 = metadata !{i32 786448, null, null, null, i32 0, i64 0, i64 0, i64 0, i32 0, metadata !1171} ; [ DW_TAG_reference_type ]
!1171 = metadata !{i32 786470, null, metadata !"", null, i32 0, i64 0, i64 0, i64 0, i32 0, metadata !236} ; [ DW_TAG_const_type ]
!1172 = metadata !{metadata !1173}
!1173 = metadata !{i32 786479, null, metadata !"_T2", metadata !236, null, i32 0, i32 0} ; [ DW_TAG_template_type_parameter ]
!1174 = metadata !{i32 41, i32 1, metadata !76, null}
!1175 = metadata !{i32 167, i32 116, metadata !1176, metadata !1165}
!1176 = metadata !{i32 786443, metadata !1158, i32 167, i32 114, metadata !1177, i32 12} ; [ DW_TAG_lexical_block ]
!1177 = metadata !{i32 786473, metadata !"C:/Xilinx/Vivado_HLS/2017.2/common/technology/autopilot/ap_sysc/ap_sc_extras.h", metadata !"C:\5CERTS_Repo\5CAssignment_2\5CSC_IO_test", null} ; [ DW_TAG_file_type ]
!1178 = metadata !{i32 41, i32 17, metadata !76, null}
!1179 = metadata !{i32 47, i32 4, metadata !1180, null}
!1180 = metadata !{i32 786443, metadata !1181, i32 46, i32 3, metadata !78, i32 9} ; [ DW_TAG_lexical_block ]
!1181 = metadata !{i32 786443, metadata !76, i32 43, i32 1, metadata !78, i32 8} ; [ DW_TAG_lexical_block ]
!1182 = metadata !{i32 803, i32 19, metadata !1151, metadata !1183}
!1183 = metadata !{i32 44, i32 3, metadata !1181, null}
!1184 = metadata !{i32 45, i32 3, metadata !1181, null}
!1185 = metadata !{i32 128, i32 96, metadata !1158, metadata !1186}
!1186 = metadata !{i32 207, i32 13, metadata !1166, metadata !1187}
!1187 = metadata !{i32 48, i32 4, metadata !1180, null}
!1188 = metadata !{i32 167, i32 116, metadata !1176, metadata !1186}
!1189 = metadata !{i32 49, i32 3, metadata !1180, null}
!1190 = metadata !{i32 128, i32 96, metadata !1158, metadata !1191}
!1191 = metadata !{i32 207, i32 13, metadata !1166, metadata !1192}
!1192 = metadata !{i32 53, i32 4, metadata !1193, null}
!1193 = metadata !{i32 786443, metadata !1181, i32 51, i32 3, metadata !78, i32 10} ; [ DW_TAG_lexical_block ]
!1194 = metadata !{i32 167, i32 116, metadata !1176, metadata !1191}
!1195 = metadata !{i32 790531, metadata !1196, metadata !"iosc.clk.m_if.Val", null, i32 18, metadata !1089, i32 0, i32 0} ; [ DW_TAG_arg_variable_field ]
!1196 = metadata !{i32 786689, metadata !1197, metadata !"this", metadata !83, i32 16777234, metadata !1088, i32 64, i32 0} ; [ DW_TAG_arg_variable ]
!1197 = metadata !{i32 786478, i32 0, null, metadata !"iosc", metadata !"iosc", metadata !"_ZN4ioscC2EN7_ap_sc_7sc_core14sc_module_nameE", metadata !83, i32 18, metadata !1045, i1 false, i1 true, i32 0, i32 0, null, i32 256, i1 false, null, null, metadata !1044, metadata !101, i32 19} ; [ DW_TAG_subprogram ]
!1198 = metadata !{i32 18, i32 3, metadata !1197, null}
!1199 = metadata !{i32 790531, metadata !1196, metadata !"iosc.reset.m_if.Val", null, i32 18, metadata !1089, i32 0, i32 0} ; [ DW_TAG_arg_variable_field ]
!1200 = metadata !{i32 790531, metadata !1196, metadata !"iosc.ctrl.m_if.Val.V", null, i32 18, metadata !1101, i32 0, i32 0} ; [ DW_TAG_arg_variable_field ]
!1201 = metadata !{i32 790531, metadata !1196, metadata !"iosc.inSwitch.m_if.Val.V", null, i32 18, metadata !1101, i32 0, i32 0} ; [ DW_TAG_arg_variable_field ]
!1202 = metadata !{i32 790531, metadata !1196, metadata !"iosc.outLeds.m_if.Val.V", null, i32 18, metadata !1118, i32 0, i32 0} ; [ DW_TAG_arg_variable_field ]
!1203 = metadata !{i32 790531, metadata !1196, metadata !"iosc.timer.Val", null, i32 18, metadata !1129, i32 0, i32 0} ; [ DW_TAG_arg_variable_field ]
!1204 = metadata !{i32 790531, metadata !1196, metadata !"iosc.switchs.V", null, i32 18, metadata !1136, i32 0, i32 0} ; [ DW_TAG_arg_variable_field ]
!1205 = metadata !{i32 20, i32 5, metadata !1206, null}
!1206 = metadata !{i32 786443, metadata !1197, i32 19, i32 2, metadata !83, i32 36} ; [ DW_TAG_lexical_block ]
!1207 = metadata !{i32 21, i32 5, metadata !1206, null}
!1208 = metadata !{i32 21, i32 36, metadata !1206, null}
!1209 = metadata !{i32 21, i32 49, metadata !1206, null}
!1210 = metadata !{i32 22, i32 5, metadata !1206, null}
!1211 = metadata !{i32 23, i32 5, metadata !1206, null}
!1212 = metadata !{i32 24, i32 5, metadata !1206, null}
!1213 = metadata !{i32 24, i32 37, metadata !1206, null}
!1214 = metadata !{i32 24, i32 51, metadata !1206, null}
!1215 = metadata !{i32 25, i32 5, metadata !1206, null}
!1216 = metadata !{i32 26, i32 5, metadata !1206, null}
!1217 = metadata !{i32 27, i32 5, metadata !1206, null}
!1218 = metadata !{i32 28, i32 5, metadata !1206, null}
!1219 = metadata !{i32 29, i32 5, metadata !1206, null}
!1220 = metadata !{i32 30, i32 5, metadata !1206, null}
!1221 = metadata !{i32 31, i32 5, metadata !1206, null}
!1222 = metadata !{i32 29, i32 1, metadata !1206, null}
!1223 = metadata !{i32 786689, metadata !1224, metadata !"op", metadata !222, i32 33555885, metadata !266, i32 0, i32 0} ; [ DW_TAG_arg_variable ]
!1224 = metadata !{i32 786478, i32 0, null, metadata !"ap_int_base", metadata !"ap_int_base", metadata !"_ZN11ap_int_baseILi4ELb0ELb1EEC2Eh", metadata !222, i32 1453, metadata !264, i1 false, i1 true, i32 0, i32 0, null, i32 256, i1 false, null, null, metadata !263, metadata !101, i32 1453} ; [ DW_TAG_subprogram ]
!1225 = metadata !{i32 790531, metadata !1226, metadata !"iosc.clk.m_if.Val", null, i32 3, metadata !1089, i32 0, i32 0} ; [ DW_TAG_arg_variable_field ]
!1226 = metadata !{i32 786689, metadata !1227, metadata !"this", metadata !78, i32 16777219, metadata !1088, i32 64, i32 0} ; [ DW_TAG_arg_variable ]
!1227 = metadata !{i32 786478, i32 0, null, metadata !"iosThread", metadata !"iosThread", metadata !"_ZN4iosc9iosThreadEv", metadata !78, i32 3, metadata !79, i1 false, i1 true, i32 0, i32 0, null, i32 256, i1 false, null, null, metadata !1042, metadata !101, i32 4} ; [ DW_TAG_subprogram ]
!1228 = metadata !{i32 3, i32 12, metadata !1227, null}
!1229 = metadata !{i32 790531, metadata !1226, metadata !"iosc.reset.m_if.Val", null, i32 3, metadata !1089, i32 0, i32 0} ; [ DW_TAG_arg_variable_field ]
!1230 = metadata !{i32 790531, metadata !1226, metadata !"iosc.ctrl.m_if.Val.V", null, i32 3, metadata !1101, i32 0, i32 0} ; [ DW_TAG_arg_variable_field ]
!1231 = metadata !{i32 790531, metadata !1226, metadata !"iosc.inSwitch.m_if.Val.V", null, i32 3, metadata !1101, i32 0, i32 0} ; [ DW_TAG_arg_variable_field ]
!1232 = metadata !{i32 790531, metadata !1226, metadata !"iosc.outLeds.m_if.Val.V", null, i32 3, metadata !1118, i32 0, i32 0} ; [ DW_TAG_arg_variable_field ]
!1233 = metadata !{i32 790531, metadata !1226, metadata !"iosc.timer.Val", null, i32 3, metadata !1129, i32 0, i32 0} ; [ DW_TAG_arg_variable_field ]
!1234 = metadata !{i32 790531, metadata !1226, metadata !"iosc.switchs.V", null, i32 3, metadata !1136, i32 0, i32 0} ; [ DW_TAG_arg_variable_field ]
!1235 = metadata !{i32 4, i32 4, metadata !1236, null}
!1236 = metadata !{i32 786443, metadata !1227, i32 4, i32 1, metadata !78, i32 0} ; [ DW_TAG_lexical_block ]
!1237 = metadata !{i32 5, i32 3, metadata !1236, null}
!1238 = metadata !{i32 6, i32 3, metadata !1236, null}
!1239 = metadata !{i32 7, i32 3, metadata !1236, null}
!1240 = metadata !{i32 8, i32 3, metadata !1236, null}
!1241 = metadata !{i32 9, i32 3, metadata !1236, null}
!1242 = metadata !{i32 9, i32 105, metadata !1236, null}
!1243 = metadata !{i32 9, i32 189, metadata !1236, null}
!1244 = metadata !{i32 9, i32 239, metadata !1236, null}
!1245 = metadata !{i32 786688, metadata !1236, metadata !"_ssdm_reset_v", metadata !78, i32 9, metadata !236, i32 0, i32 0} ; [ DW_TAG_auto_variable ]
!1246 = metadata !{i32 5, i32 1, metadata !1236, null}
!1247 = metadata !{i32 5, i32 92, metadata !1236, null}
!1248 = metadata !{i32 5, i32 130, metadata !1236, null}
!1249 = metadata !{i32 803, i32 19, metadata !1151, metadata !1250}
!1250 = metadata !{i32 8, i32 1, metadata !1236, null}
!1251 = metadata !{i32 9, i32 26, metadata !1236, null}
!1252 = metadata !{i32 14, i32 7, metadata !1253, null}
!1253 = metadata !{i32 786443, metadata !1236, i32 11, i32 1, metadata !78, i32 1} ; [ DW_TAG_lexical_block ]
!1254 = metadata !{i32 803, i32 19, metadata !1151, metadata !1255}
!1255 = metadata !{i32 13, i32 3, metadata !1253, null}
!1256 = metadata !{i32 374, i32 13, metadata !1257, metadata !1259}
!1257 = metadata !{i32 786443, metadata !1258, i32 373, i32 97, metadata !218, i32 31} ; [ DW_TAG_lexical_block ]
!1258 = metadata !{i32 786478, i32 0, metadata !216, metadata !"operator=", metadata !"operator=", metadata !"_ZN7_ap_sc_5sc_dt7sc_uintILi4EEaSERVKS2_", metadata !218, i32 373, metadata !829, i1 false, i1 true, i32 0, i32 0, null, i32 256, i1 false, null, null, metadata !828, metadata !101, i32 373} ; [ DW_TAG_subprogram ]
!1259 = metadata !{i32 60, i32 21, metadata !1260, metadata !1267}
!1260 = metadata !{i32 786443, metadata !1261, i32 59, i32 88, metadata !1177, i32 30} ; [ DW_TAG_lexical_block ]
!1261 = metadata !{i32 786478, i32 0, metadata !89, metadata !"_ssdm_op_READ<4>", metadata !"_ssdm_op_READ<4>", metadata !"_Z13_ssdm_op_READILi4EEN7_ap_sc_5sc_dt7sc_uintIXT_EEERVS3_", metadata !89, i32 105, metadata !1262, i1 false, i1 true, i32 0, i32 0, null, i32 256, i1 false, null, metadata !1265, null, metadata !101, i32 59} ; [ DW_TAG_subprogram ]
!1262 = metadata !{i32 786453, i32 0, metadata !"", i32 0, i32 0, i64 0, i64 0, i64 0, i32 0, null, metadata !1263, i32 0, i32 0} ; [ DW_TAG_subroutine_type ]
!1263 = metadata !{metadata !215, metadata !1264}
!1264 = metadata !{i32 786448, null, null, null, i32 0, i64 0, i64 0, i64 0, i32 0, metadata !214} ; [ DW_TAG_reference_type ]
!1265 = metadata !{metadata !1266}
!1266 = metadata !{i32 786480, null, metadata !"W", metadata !236, i64 4, null, i32 0, i32 0} ; [ DW_TAG_template_value_parameter ]
!1267 = metadata !{i32 180, i32 66, metadata !1268, metadata !1270}
!1268 = metadata !{i32 786443, metadata !1269, i32 180, i32 56, metadata !89, i32 29} ; [ DW_TAG_lexical_block ]
!1269 = metadata !{i32 786478, i32 0, metadata !87, metadata !"read", metadata !"read", metadata !"_ZN7_ap_sc_7sc_core15sc_signal_in_ifINS_5sc_dt7sc_uintILi4EEEE4readEv", metadata !89, i32 180, metadata !843, i1 false, i1 true, i32 0, i32 0, null, i32 256, i1 false, null, null, metadata !842, metadata !101, i32 180} ; [ DW_TAG_subprogram ]
!1270 = metadata !{i32 351, i32 73, metadata !1271, metadata !1252}
!1271 = metadata !{i32 786443, metadata !1272, i32 351, i32 64, metadata !89, i32 28} ; [ DW_TAG_lexical_block ]
!1272 = metadata !{i32 786478, i32 0, metadata !87, metadata !"read", metadata !"read", metadata !"_ZN7_ap_sc_7sc_core5sc_inINS_5sc_dt7sc_uintILi4EEEE4readEv", metadata !89, i32 351, metadata !893, i1 false, i1 true, i32 0, i32 0, null, i32 256, i1 false, null, null, metadata !892, metadata !101, i32 351} ; [ DW_TAG_subprogram ]
!1273 = metadata !{i32 790529, metadata !1274, metadata !"val.V", null, i32 60, metadata !1110, i32 0, i32 0} ; [ DW_TAG_auto_variable_field ]
!1274 = metadata !{i32 786688, metadata !1260, metadata !"val", metadata !1177, i32 60, metadata !831, i32 0, i32 0} ; [ DW_TAG_auto_variable ]
!1275 = metadata !{i32 1979, i32 9, metadata !1276, metadata !1820}
!1276 = metadata !{i32 786443, metadata !1277, i32 1978, i32 107, metadata !222, i32 27} ; [ DW_TAG_lexical_block ]
!1277 = metadata !{i32 786478, i32 0, null, metadata !"operator==<32, true>", metadata !"operator==<32, true>", metadata !"_ZNK11ap_int_baseILi4ELb0ELb1EEeqILi32ELb1EEEbRKS_IXT_EXT0_EXleT_Li64EEE", metadata !222, i32 1978, metadata !1278, i1 false, i1 true, i32 0, i32 0, null, i32 256, i1 false, null, metadata !1302, null, metadata !101, i32 1978} ; [ DW_TAG_subprogram ]
!1278 = metadata !{i32 786453, i32 0, metadata !"", i32 0, i32 0, i64 0, i64 0, i64 0, i32 0, null, metadata !1279, i32 0, i32 0} ; [ DW_TAG_subroutine_type ]
!1279 = metadata !{metadata !115, metadata !375, metadata !1280}
!1280 = metadata !{i32 786448, null, null, null, i32 0, i64 0, i64 0, i64 0, i32 0, metadata !1281} ; [ DW_TAG_reference_type ]
!1281 = metadata !{i32 786470, null, metadata !"", null, i32 0, i64 0, i64 0, i64 0, i32 0, metadata !1282} ; [ DW_TAG_const_type ]
!1282 = metadata !{i32 786434, null, metadata !"ap_int_base<32, true, true>", metadata !222, i32 1388, i64 32, i64 32, i32 0, i32 0, null, metadata !1283, i32 0, null, metadata !1818} ; [ DW_TAG_class_type ]
!1283 = metadata !{metadata !1284, metadata !1295, metadata !1299, metadata !1305, metadata !1311, metadata !1314, metadata !1317, metadata !1320, metadata !1323, metadata !1326, metadata !1329, metadata !1332, metadata !1335, metadata !1338, metadata !1341, metadata !1344, metadata !1347, metadata !1350, metadata !1353, metadata !1356, metadata !1359, metadata !1363, metadata !1366, metadata !1369, metadata !1370, metadata !1374, metadata !1377, metadata !1380, metadata !1383, metadata !1386, metadata !1389, metadata !1392, metadata !1395, metadata !1398, metadata !1401, metadata !1404, metadata !1407, metadata !1415, metadata !1418, metadata !1421, metadata !1424, metadata !1427, metadata !1430, metadata !1433, metadata !1436, metadata !1439, metadata !1442, metadata !1445, metadata !1448, metadata !1451, metadata !1452, metadata !1456, metadata !1459, metadata !1460, metadata !1461, metadata !1462, metadata !1463, metadata !1464, metadata !1467, metadata !1468, metadata !1471, metadata !1472, metadata !1473, metadata !1474, metadata !1475, metadata !1476, metadata !1479, metadata !1480, metadata !1481, metadata !1484, metadata !1485, metadata !1488, metadata !1489, metadata !1778, metadata !1782, metadata !1783, metadata !1786, metadata !1787, metadata !1791, metadata !1792, metadata !1793, metadata !1794, metadata !1797, metadata !1798, metadata !1799, metadata !1800, metadata !1801, metadata !1802, metadata !1803, metadata !1804, metadata !1805, metadata !1806, metadata !1807, metadata !1808, metadata !1811, metadata !1814, metadata !1817}
!1284 = metadata !{i32 786460, metadata !1282, null, metadata !222, i32 0, i64 0, i64 0, i64 0, i32 0, metadata !1285} ; [ DW_TAG_inheritance ]
!1285 = metadata !{i32 786434, null, metadata !"ssdm_int<32 + 1024 * 0, true>", metadata !226, i32 65, i64 32, i64 32, i32 0, i32 0, null, metadata !1286, i32 0, null, metadata !1293} ; [ DW_TAG_class_type ]
!1286 = metadata !{metadata !1287, metadata !1289}
!1287 = metadata !{i32 786445, metadata !1285, metadata !"V", metadata !226, i32 65, i64 32, i64 32, i64 0, i32 0, metadata !1288} ; [ DW_TAG_member ]
!1288 = metadata !{i32 786468, null, metadata !"int32", null, i32 0, i64 32, i64 32, i64 0, i32 0, i32 5} ; [ DW_TAG_base_type ]
!1289 = metadata !{i32 786478, i32 0, metadata !1285, metadata !"ssdm_int", metadata !"ssdm_int", metadata !"", metadata !226, i32 65, metadata !1290, i1 false, i1 false, i32 0, i32 0, null, i32 256, i1 false, null, null, i32 0, metadata !101, i32 65} ; [ DW_TAG_subprogram ]
!1290 = metadata !{i32 786453, i32 0, metadata !"", i32 0, i32 0, i64 0, i64 0, i64 0, i32 0, null, metadata !1291, i32 0, i32 0} ; [ DW_TAG_subroutine_type ]
!1291 = metadata !{null, metadata !1292}
!1292 = metadata !{i32 786447, i32 0, metadata !"", i32 0, i32 0, i64 32, i64 32, i64 0, i32 64, metadata !1285} ; [ DW_TAG_pointer_type ]
!1293 = metadata !{metadata !1294, metadata !466}
!1294 = metadata !{i32 786480, null, metadata !"_AP_N", metadata !236, i64 32, null, i32 0, i32 0} ; [ DW_TAG_template_value_parameter ]
!1295 = metadata !{i32 786478, i32 0, metadata !1282, metadata !"ap_int_base", metadata !"ap_int_base", metadata !"", metadata !222, i32 1429, metadata !1296, i1 false, i1 false, i32 0, i32 0, null, i32 256, i1 false, null, null, i32 0, metadata !101, i32 1429} ; [ DW_TAG_subprogram ]
!1296 = metadata !{i32 786453, i32 0, metadata !"", i32 0, i32 0, i64 0, i64 0, i64 0, i32 0, null, metadata !1297, i32 0, i32 0} ; [ DW_TAG_subroutine_type ]
!1297 = metadata !{null, metadata !1298}
!1298 = metadata !{i32 786447, i32 0, metadata !"", i32 0, i32 0, i64 32, i64 32, i64 0, i32 64, metadata !1282} ; [ DW_TAG_pointer_type ]
!1299 = metadata !{i32 786478, i32 0, metadata !1282, metadata !"ap_int_base<32, true>", metadata !"ap_int_base<32, true>", metadata !"", metadata !222, i32 1441, metadata !1300, i1 false, i1 false, i32 0, i32 0, null, i32 256, i1 false, null, metadata !1302, i32 0, metadata !101, i32 1441} ; [ DW_TAG_subprogram ]
!1300 = metadata !{i32 786453, i32 0, metadata !"", i32 0, i32 0, i64 0, i64 0, i64 0, i32 0, null, metadata !1301, i32 0, i32 0} ; [ DW_TAG_subroutine_type ]
!1301 = metadata !{null, metadata !1298, metadata !1280}
!1302 = metadata !{metadata !1303, metadata !1304}
!1303 = metadata !{i32 786480, null, metadata !"_AP_W2", metadata !236, i64 32, null, i32 0, i32 0} ; [ DW_TAG_template_value_parameter ]
!1304 = metadata !{i32 786480, null, metadata !"_AP_S2", metadata !115, i64 1, null, i32 0, i32 0} ; [ DW_TAG_template_value_parameter ]
!1305 = metadata !{i32 786478, i32 0, metadata !1282, metadata !"ap_int_base<32, true>", metadata !"ap_int_base<32, true>", metadata !"", metadata !222, i32 1444, metadata !1306, i1 false, i1 false, i32 0, i32 0, null, i32 256, i1 false, null, metadata !1302, i32 0, metadata !101, i32 1444} ; [ DW_TAG_subprogram ]
!1306 = metadata !{i32 786453, i32 0, metadata !"", i32 0, i32 0, i64 0, i64 0, i64 0, i32 0, null, metadata !1307, i32 0, i32 0} ; [ DW_TAG_subroutine_type ]
!1307 = metadata !{null, metadata !1298, metadata !1308}
!1308 = metadata !{i32 786448, null, null, null, i32 0, i64 0, i64 0, i64 0, i32 0, metadata !1309} ; [ DW_TAG_reference_type ]
!1309 = metadata !{i32 786470, null, metadata !"", null, i32 0, i64 0, i64 0, i64 0, i32 0, metadata !1310} ; [ DW_TAG_const_type ]
!1310 = metadata !{i32 786485, null, metadata !"", null, i32 0, i64 0, i64 0, i64 0, i32 0, metadata !1282} ; [ DW_TAG_volatile_type ]
!1311 = metadata !{i32 786478, i32 0, metadata !1282, metadata !"ap_int_base", metadata !"ap_int_base", metadata !"", metadata !222, i32 1451, metadata !1312, i1 false, i1 false, i32 0, i32 0, null, i32 384, i1 false, null, null, i32 0, metadata !101, i32 1451} ; [ DW_TAG_subprogram ]
!1312 = metadata !{i32 786453, i32 0, metadata !"", i32 0, i32 0, i64 0, i64 0, i64 0, i32 0, null, metadata !1313, i32 0, i32 0} ; [ DW_TAG_subroutine_type ]
!1313 = metadata !{null, metadata !1298, metadata !115}
!1314 = metadata !{i32 786478, i32 0, metadata !1282, metadata !"ap_int_base", metadata !"ap_int_base", metadata !"", metadata !222, i32 1452, metadata !1315, i1 false, i1 false, i32 0, i32 0, null, i32 384, i1 false, null, null, i32 0, metadata !101, i32 1452} ; [ DW_TAG_subprogram ]
!1315 = metadata !{i32 786453, i32 0, metadata !"", i32 0, i32 0, i64 0, i64 0, i64 0, i32 0, null, metadata !1316, i32 0, i32 0} ; [ DW_TAG_subroutine_type ]
!1316 = metadata !{null, metadata !1298, metadata !262}
!1317 = metadata !{i32 786478, i32 0, metadata !1282, metadata !"ap_int_base", metadata !"ap_int_base", metadata !"", metadata !222, i32 1453, metadata !1318, i1 false, i1 false, i32 0, i32 0, null, i32 384, i1 false, null, null, i32 0, metadata !101, i32 1453} ; [ DW_TAG_subprogram ]
!1318 = metadata !{i32 786453, i32 0, metadata !"", i32 0, i32 0, i64 0, i64 0, i64 0, i32 0, null, metadata !1319, i32 0, i32 0} ; [ DW_TAG_subroutine_type ]
!1319 = metadata !{null, metadata !1298, metadata !266}
!1320 = metadata !{i32 786478, i32 0, metadata !1282, metadata !"ap_int_base", metadata !"ap_int_base", metadata !"", metadata !222, i32 1454, metadata !1321, i1 false, i1 false, i32 0, i32 0, null, i32 384, i1 false, null, null, i32 0, metadata !101, i32 1454} ; [ DW_TAG_subprogram ]
!1321 = metadata !{i32 786453, i32 0, metadata !"", i32 0, i32 0, i64 0, i64 0, i64 0, i32 0, null, metadata !1322, i32 0, i32 0} ; [ DW_TAG_subroutine_type ]
!1322 = metadata !{null, metadata !1298, metadata !270}
!1323 = metadata !{i32 786478, i32 0, metadata !1282, metadata !"ap_int_base", metadata !"ap_int_base", metadata !"", metadata !222, i32 1455, metadata !1324, i1 false, i1 false, i32 0, i32 0, null, i32 384, i1 false, null, null, i32 0, metadata !101, i32 1455} ; [ DW_TAG_subprogram ]
!1324 = metadata !{i32 786453, i32 0, metadata !"", i32 0, i32 0, i64 0, i64 0, i64 0, i32 0, null, metadata !1325, i32 0, i32 0} ; [ DW_TAG_subroutine_type ]
!1325 = metadata !{null, metadata !1298, metadata !274}
!1326 = metadata !{i32 786478, i32 0, metadata !1282, metadata !"ap_int_base", metadata !"ap_int_base", metadata !"", metadata !222, i32 1456, metadata !1327, i1 false, i1 false, i32 0, i32 0, null, i32 384, i1 false, null, null, i32 0, metadata !101, i32 1456} ; [ DW_TAG_subprogram ]
!1327 = metadata !{i32 786453, i32 0, metadata !"", i32 0, i32 0, i64 0, i64 0, i64 0, i32 0, null, metadata !1328, i32 0, i32 0} ; [ DW_TAG_subroutine_type ]
!1328 = metadata !{null, metadata !1298, metadata !236}
!1329 = metadata !{i32 786478, i32 0, metadata !1282, metadata !"ap_int_base", metadata !"ap_int_base", metadata !"", metadata !222, i32 1457, metadata !1330, i1 false, i1 false, i32 0, i32 0, null, i32 384, i1 false, null, null, i32 0, metadata !101, i32 1457} ; [ DW_TAG_subprogram ]
!1330 = metadata !{i32 786453, i32 0, metadata !"", i32 0, i32 0, i64 0, i64 0, i64 0, i32 0, null, metadata !1331, i32 0, i32 0} ; [ DW_TAG_subroutine_type ]
!1331 = metadata !{null, metadata !1298, metadata !281}
!1332 = metadata !{i32 786478, i32 0, metadata !1282, metadata !"ap_int_base", metadata !"ap_int_base", metadata !"", metadata !222, i32 1458, metadata !1333, i1 false, i1 false, i32 0, i32 0, null, i32 384, i1 false, null, null, i32 0, metadata !101, i32 1458} ; [ DW_TAG_subprogram ]
!1333 = metadata !{i32 786453, i32 0, metadata !"", i32 0, i32 0, i64 0, i64 0, i64 0, i32 0, null, metadata !1334, i32 0, i32 0} ; [ DW_TAG_subroutine_type ]
!1334 = metadata !{null, metadata !1298, metadata !285}
!1335 = metadata !{i32 786478, i32 0, metadata !1282, metadata !"ap_int_base", metadata !"ap_int_base", metadata !"", metadata !222, i32 1459, metadata !1336, i1 false, i1 false, i32 0, i32 0, null, i32 384, i1 false, null, null, i32 0, metadata !101, i32 1459} ; [ DW_TAG_subprogram ]
!1336 = metadata !{i32 786453, i32 0, metadata !"", i32 0, i32 0, i64 0, i64 0, i64 0, i32 0, null, metadata !1337, i32 0, i32 0} ; [ DW_TAG_subroutine_type ]
!1337 = metadata !{null, metadata !1298, metadata !289}
!1338 = metadata !{i32 786478, i32 0, metadata !1282, metadata !"ap_int_base", metadata !"ap_int_base", metadata !"", metadata !222, i32 1460, metadata !1339, i1 false, i1 false, i32 0, i32 0, null, i32 384, i1 false, null, null, i32 0, metadata !101, i32 1460} ; [ DW_TAG_subprogram ]
!1339 = metadata !{i32 786453, i32 0, metadata !"", i32 0, i32 0, i64 0, i64 0, i64 0, i32 0, null, metadata !1340, i32 0, i32 0} ; [ DW_TAG_subroutine_type ]
!1340 = metadata !{null, metadata !1298, metadata !293}
!1341 = metadata !{i32 786478, i32 0, metadata !1282, metadata !"ap_int_base", metadata !"ap_int_base", metadata !"", metadata !222, i32 1461, metadata !1342, i1 false, i1 false, i32 0, i32 0, null, i32 384, i1 false, null, null, i32 0, metadata !101, i32 1461} ; [ DW_TAG_subprogram ]
!1342 = metadata !{i32 786453, i32 0, metadata !"", i32 0, i32 0, i64 0, i64 0, i64 0, i32 0, null, metadata !1343, i32 0, i32 0} ; [ DW_TAG_subroutine_type ]
!1343 = metadata !{null, metadata !1298, metadata !298}
!1344 = metadata !{i32 786478, i32 0, metadata !1282, metadata !"ap_int_base", metadata !"ap_int_base", metadata !"", metadata !222, i32 1462, metadata !1345, i1 false, i1 false, i32 0, i32 0, null, i32 384, i1 false, null, null, i32 0, metadata !101, i32 1462} ; [ DW_TAG_subprogram ]
!1345 = metadata !{i32 786453, i32 0, metadata !"", i32 0, i32 0, i64 0, i64 0, i64 0, i32 0, null, metadata !1346, i32 0, i32 0} ; [ DW_TAG_subroutine_type ]
!1346 = metadata !{null, metadata !1298, metadata !303}
!1347 = metadata !{i32 786478, i32 0, metadata !1282, metadata !"ap_int_base", metadata !"ap_int_base", metadata !"", metadata !222, i32 1463, metadata !1348, i1 false, i1 false, i32 0, i32 0, null, i32 384, i1 false, null, null, i32 0, metadata !101, i32 1463} ; [ DW_TAG_subprogram ]
!1348 = metadata !{i32 786453, i32 0, metadata !"", i32 0, i32 0, i64 0, i64 0, i64 0, i32 0, null, metadata !1349, i32 0, i32 0} ; [ DW_TAG_subroutine_type ]
!1349 = metadata !{null, metadata !1298, metadata !308}
!1350 = metadata !{i32 786478, i32 0, metadata !1282, metadata !"ap_int_base", metadata !"ap_int_base", metadata !"", metadata !222, i32 1464, metadata !1351, i1 false, i1 false, i32 0, i32 0, null, i32 384, i1 false, null, null, i32 0, metadata !101, i32 1464} ; [ DW_TAG_subprogram ]
!1351 = metadata !{i32 786453, i32 0, metadata !"", i32 0, i32 0, i64 0, i64 0, i64 0, i32 0, null, metadata !1352, i32 0, i32 0} ; [ DW_TAG_subroutine_type ]
!1352 = metadata !{null, metadata !1298, metadata !312}
!1353 = metadata !{i32 786478, i32 0, metadata !1282, metadata !"ap_int_base", metadata !"ap_int_base", metadata !"", metadata !222, i32 1491, metadata !1354, i1 false, i1 false, i32 0, i32 0, null, i32 256, i1 false, null, null, i32 0, metadata !101, i32 1491} ; [ DW_TAG_subprogram ]
!1354 = metadata !{i32 786453, i32 0, metadata !"", i32 0, i32 0, i64 0, i64 0, i64 0, i32 0, null, metadata !1355, i32 0, i32 0} ; [ DW_TAG_subroutine_type ]
!1355 = metadata !{null, metadata !1298, metadata !144}
!1356 = metadata !{i32 786478, i32 0, metadata !1282, metadata !"ap_int_base", metadata !"ap_int_base", metadata !"", metadata !222, i32 1498, metadata !1357, i1 false, i1 false, i32 0, i32 0, null, i32 256, i1 false, null, null, i32 0, metadata !101, i32 1498} ; [ DW_TAG_subprogram ]
!1357 = metadata !{i32 786453, i32 0, metadata !"", i32 0, i32 0, i64 0, i64 0, i64 0, i32 0, null, metadata !1358, i32 0, i32 0} ; [ DW_TAG_subroutine_type ]
!1358 = metadata !{null, metadata !1298, metadata !144, metadata !262}
!1359 = metadata !{i32 786478, i32 0, metadata !1282, metadata !"read", metadata !"read", metadata !"_ZNV11ap_int_baseILi32ELb1ELb1EE4readEv", metadata !222, i32 1519, metadata !1360, i1 false, i1 false, i32 0, i32 0, null, i32 256, i1 false, null, null, i32 0, metadata !101, i32 1519} ; [ DW_TAG_subprogram ]
!1360 = metadata !{i32 786453, i32 0, metadata !"", i32 0, i32 0, i64 0, i64 0, i64 0, i32 0, null, metadata !1361, i32 0, i32 0} ; [ DW_TAG_subroutine_type ]
!1361 = metadata !{metadata !1282, metadata !1362}
!1362 = metadata !{i32 786447, i32 0, metadata !"", i32 0, i32 0, i64 32, i64 32, i64 0, i32 64, metadata !1310} ; [ DW_TAG_pointer_type ]
!1363 = metadata !{i32 786478, i32 0, metadata !1282, metadata !"write", metadata !"write", metadata !"_ZNV11ap_int_baseILi32ELb1ELb1EE5writeERKS0_", metadata !222, i32 1525, metadata !1364, i1 false, i1 false, i32 0, i32 0, null, i32 256, i1 false, null, null, i32 0, metadata !101, i32 1525} ; [ DW_TAG_subprogram ]
!1364 = metadata !{i32 786453, i32 0, metadata !"", i32 0, i32 0, i64 0, i64 0, i64 0, i32 0, null, metadata !1365, i32 0, i32 0} ; [ DW_TAG_subroutine_type ]
!1365 = metadata !{null, metadata !1362, metadata !1280}
!1366 = metadata !{i32 786478, i32 0, metadata !1282, metadata !"operator=", metadata !"operator=", metadata !"_ZNV11ap_int_baseILi32ELb1ELb1EEaSERVKS0_", metadata !222, i32 1537, metadata !1367, i1 false, i1 false, i32 0, i32 0, null, i32 256, i1 false, null, null, i32 0, metadata !101, i32 1537} ; [ DW_TAG_subprogram ]
!1367 = metadata !{i32 786453, i32 0, metadata !"", i32 0, i32 0, i64 0, i64 0, i64 0, i32 0, null, metadata !1368, i32 0, i32 0} ; [ DW_TAG_subroutine_type ]
!1368 = metadata !{null, metadata !1362, metadata !1308}
!1369 = metadata !{i32 786478, i32 0, metadata !1282, metadata !"operator=", metadata !"operator=", metadata !"_ZNV11ap_int_baseILi32ELb1ELb1EEaSERKS0_", metadata !222, i32 1546, metadata !1364, i1 false, i1 false, i32 0, i32 0, null, i32 256, i1 false, null, null, i32 0, metadata !101, i32 1546} ; [ DW_TAG_subprogram ]
!1370 = metadata !{i32 786478, i32 0, metadata !1282, metadata !"operator=", metadata !"operator=", metadata !"_ZN11ap_int_baseILi32ELb1ELb1EEaSERVKS0_", metadata !222, i32 1579, metadata !1371, i1 false, i1 false, i32 0, i32 0, null, i32 256, i1 false, null, null, i32 0, metadata !101, i32 1579} ; [ DW_TAG_subprogram ]
!1371 = metadata !{i32 786453, i32 0, metadata !"", i32 0, i32 0, i64 0, i64 0, i64 0, i32 0, null, metadata !1372, i32 0, i32 0} ; [ DW_TAG_subroutine_type ]
!1372 = metadata !{metadata !1373, metadata !1298, metadata !1308}
!1373 = metadata !{i32 786448, null, null, null, i32 0, i64 0, i64 0, i64 0, i32 0, metadata !1282} ; [ DW_TAG_reference_type ]
!1374 = metadata !{i32 786478, i32 0, metadata !1282, metadata !"operator=", metadata !"operator=", metadata !"_ZN11ap_int_baseILi32ELb1ELb1EEaSERKS0_", metadata !222, i32 1584, metadata !1375, i1 false, i1 false, i32 0, i32 0, null, i32 256, i1 false, null, null, i32 0, metadata !101, i32 1584} ; [ DW_TAG_subprogram ]
!1375 = metadata !{i32 786453, i32 0, metadata !"", i32 0, i32 0, i64 0, i64 0, i64 0, i32 0, null, metadata !1376, i32 0, i32 0} ; [ DW_TAG_subroutine_type ]
!1376 = metadata !{metadata !1373, metadata !1298, metadata !1280}
!1377 = metadata !{i32 786478, i32 0, metadata !1282, metadata !"operator=", metadata !"operator=", metadata !"_ZN11ap_int_baseILi32ELb1ELb1EEaSEPKc", metadata !222, i32 1588, metadata !1378, i1 false, i1 false, i32 0, i32 0, null, i32 256, i1 false, null, null, i32 0, metadata !101, i32 1588} ; [ DW_TAG_subprogram ]
!1378 = metadata !{i32 786453, i32 0, metadata !"", i32 0, i32 0, i64 0, i64 0, i64 0, i32 0, null, metadata !1379, i32 0, i32 0} ; [ DW_TAG_subroutine_type ]
!1379 = metadata !{metadata !1373, metadata !1298, metadata !144}
!1380 = metadata !{i32 786478, i32 0, metadata !1282, metadata !"set", metadata !"set", metadata !"_ZN11ap_int_baseILi32ELb1ELb1EE3setEPKca", metadata !222, i32 1596, metadata !1381, i1 false, i1 false, i32 0, i32 0, null, i32 256, i1 false, null, null, i32 0, metadata !101, i32 1596} ; [ DW_TAG_subprogram ]
!1381 = metadata !{i32 786453, i32 0, metadata !"", i32 0, i32 0, i64 0, i64 0, i64 0, i32 0, null, metadata !1382, i32 0, i32 0} ; [ DW_TAG_subroutine_type ]
!1382 = metadata !{metadata !1373, metadata !1298, metadata !144, metadata !262}
